L251 LINKER/LOCATER V4.66.93.0                                                          04/24/2024  23:59:23  PAGE 1


L251 LINKER/LOCATER V4.66.93.0, INVOKED BY:
C:\KEIL_V5\C251\BIN\L251.EXE ..\firmware\ADC.obj, ..\firmware\BH1745.obj, ..\firmware\BMC050.obj, ..\firmware\CompassMen
>> u.obj, ..\firmware\DATA.obj, ..\firmware\flag.obj, ..\firmware\IIC.obj, ..\firmware\INS5699S.obj, ..\firmware\IO.obj,
>>  ..\firmware\logic.obj, ..\firmware\main.obj, ..\firmware\Main_Menu.obj, ..\firmware\OLED.obj, ..\firmware\SecondaryM
>> enu.obj, ..\firmware\SHT41.obj, ..\firmware\SPL06.obj, ..\firmware\SW.obj, ..\firmware\ThreeMenu.obj, ..\firmware\tim
>> e.obj, ..\firmware\Time_Interruption.obj, ..\firmware\TV_Mode.obj, ..\firmware\UART1.obj, ..\firmware\UI.obj, ..\firm
>> ware\isr.obj, .\STC32_MDU32_LARGE_V1.1.LIB, ..\firmware\SleepMode.obj TO ..\firmware\STC32F_LowPowerClock PRINT (.\ST
>> C32F_LowPowerClock.map) WARNINGLEVEL (0) CASE REMOVEUNUSED CLASSES (EDATA (0X0-0XFFF), HDATA (0X0-0XFFF))


CPU MODE:     251 SOURCE MODE
INTR FRAME:   4 BYTES SAVED ON INTERRUPT
MEMORY MODEL: XSMALL


INPUT MODULES INCLUDED:
  ..\firmware\ADC.obj (ADC)
         COMMENT TYPE 0: C251 V5.60.0
  ..\firmware\BH1745.obj (BH1745)
         COMMENT TYPE 0: C251 V5.60.0
  ..\firmware\BMC050.obj (BMC050)
         COMMENT TYPE 0: C251 V5.60.0
  ..\firmware\CompassMenu.obj (CompassMenu)
         COMMENT TYPE 0: C251 V5.60.0
  ..\firmware\DATA.obj (DATA)
         COMMENT TYPE 0: C251 V5.60.0
  ..\firmware\flag.obj (flag)
         COMMENT TYPE 0: C251 V5.60.0
  ..\firmware\IIC.obj (IIC)
         COMMENT TYPE 0: C251 V5.60.0
  ..\firmware\INS5699S.obj (INS5699S)
         COMMENT TYPE 0: C251 V5.60.0
  ..\firmware\IO.obj (IO)
         COMMENT TYPE 0: C251 V5.60.0
  ..\firmware\logic.obj (logic)
         COMMENT TYPE 0: C251 V5.60.0
  ..\firmware\main.obj (main)
         COMMENT TYPE 0: C251 V5.60.0
  ..\firmware\Main_Menu.obj (Main_Menu)
         COMMENT TYPE 0: C251 V5.60.0
  ..\firmware\OLED.obj (OLED)
         COMMENT TYPE 0: C251 V5.60.0
  ..\firmware\SecondaryMenu.obj (SecondaryMenu)
         COMMENT TYPE 0: C251 V5.60.0
  ..\firmware\SHT41.obj (SHT41)
         COMMENT TYPE 0: C251 V5.60.0
  ..\firmware\SPL06.obj (SPL06)
         COMMENT TYPE 0: C251 V5.60.0
  ..\firmware\SW.obj (SW)
         COMMENT TYPE 0: C251 V5.60.0
  ..\firmware\ThreeMenu.obj (ThreeMenu)
         COMMENT TYPE 0: C251 V5.60.0
  ..\firmware\time.obj (time)
         COMMENT TYPE 0: C251 V5.60.0
  ..\firmware\Time_Interruption.obj (Time_Interruption)
         COMMENT TYPE 0: C251 V5.60.0
  ..\firmware\TV_Mode.obj (TV_Mode)
         COMMENT TYPE 0: C251 V5.60.0
  ..\firmware\UART1.obj (UART1)
         COMMENT TYPE 0: C251 V5.60.0
  ..\firmware\UI.obj (UI)
         COMMENT TYPE 0: C251 V5.60.0
  ..\firmware\isr.obj (isr)
         COMMENT TYPE 0: A251 V4.69.13.0
  .\STC32_MDU32_LARGE_V1.1.LIB (STC_MDU32)
         COMMENT TYPE 0: A251 V4.69.13.0
L251 LINKER/LOCATER V4.66.93.0                                                        04/24/2024  23:59:23  PAGE 2


  ..\firmware\SleepMode.obj (SleepMode)
         COMMENT TYPE 0: C251 V5.60.0
  C:\KEIL_V5\C251\LIB\C2SXS.LIB (?C_START)
         COMMENT TYPE 0: A251 V4.69.6.0
  C:\KEIL_V5\C251\LIB\C2SXS.LIB (?C?INITEDATA)
         COMMENT TYPE 0: A251 V4.69.6.0
  C:\KEIL_V5\C251\LIB\C2SXS.LIB (?C?INITHDATA)
         COMMENT TYPE 0: A251 V4.69.6.0
  C:\KEIL_V5\C251\LIB\C2SXS.LIB (?C?SIDIV)
         COMMENT TYPE 0: A251 V4.69.6.0
  C:\KEIL_V5\C251\LIB\C2SXS.LIB (?C?INITEDATA_END)
         COMMENT TYPE 0: A251 V4.69.6.0
  C:\KEIL_V5\C251\LIB\C2SXS.LIB (?C?INITHDATA_END)
         COMMENT TYPE 0: A251 V4.69.6.0


ACTIVE MEMORY CLASSES OF MODULE:  ..\firmware\STC32F_LowPowerClock (ADC)

BASE        START       END         USED      MEMORY CLASS
==========================================================
000000H     000000H     000FFFH     0004B8H   EDATA
000000H     000000H     000FFFH               HDATA
FF0000H     FF0000H     FFFFFFH     00927DH   CODE
000000H     FF0000H     FFFFFFH     000C4AH   HCONST
000020H.0   000020H.0   00002FH.7   000000H.2 BIT
010000H     010000H     01FFFFH     000B89H   XDATA
000000H     000000H     00007FH     000008H   DATA


MEMORY MAP OF MODULE:  ..\firmware\STC32F_LowPowerClock (ADC)


START     STOP      LENGTH    ALIGN  RELOC    MEMORY CLASS   SEGMENT NAME
=========================================================================
000000H   000007H   000008H   ---    AT..     DATA           "REG BANK 0"
000008H   00001CH   000015H   BYTE   UNIT     EDATA          ?ED?ADC
00001DH   00001EH   000002H   BYTE   UNIT     EDATA          ?ED?OLED
00001FH   00001FH   000001H   BYTE   UNIT     EDATA          ?ED?SECONDARYMENU
000020H.0 000020H.1 000000H.2 BIT    UNIT     BIT            _BIT_GROUP_
000020H.2 000020H   000000H.6 ---    ---      **GAP**
000021H   000324H   000304H   BYTE   UNIT     EDATA          ?ED?DATA
000325H   000373H   00004FH   BYTE   UNIT     EDATA          ?ED?BMC050
000374H   000398H   000025H   BYTE   UNIT     EDATA          ?ED?MAIN
000399H   0003AAH   000012H   BYTE   UNIT     EDATA          ?ED?COMPASSMENU
0003ABH   0003B8H   00000EH   BYTE   UNIT     EDATA          _EDATA_GROUP_
0003B9H   0003BCH   000004H   BYTE   UNIT     EDATA          ?ED?THREEMENU
0003BDH   0003BEH   000002H   BYTE   UNIT     EDATA          ?ED?TV_MODE
0003BFH   0003BFH   000001H   BYTE   UNIT     EDATA          ?ED?SHT41
0003C0H   0003C0H   000001H   BYTE   UNIT     EDATA          ?ED?TIME_INTERRUPTION
0003C1H   0004C0H   000100H   BYTE   UNIT     EDATA          ?STACK
0004C1H   00FFFFH   00FB3FH   ---    ---      **GAP**
010000H   0107F4H   0007F5H   BYTE   INSEG    XDATA          ?XD?DATA
0107F5H   010AF4H   000300H   BYTE   INSEG    XDATA          ?XD?OLED
010AF5H   010B74H   000080H   BYTE   INSEG    XDATA          ?XD?UART1
010B75H   010B88H   000014H   BYTE   INSEG    XDATA          ?XD?MAIN
010B89H   FEFFFFH   FDF477H   ---    ---      **GAP**
FF0000H   FF0002H   000003H   ---    OFFS..   CODE           ?CO?start251?4
FF0003H   FF0005H   000003H   ---    OFFS..   CODE           ?PR?IV?0
FF0006H   FF0011H   00000CH   BYTE   INSEG    CODE           ?PR?DELAY10US?TIME
FF0012H   FF0012H   000001H   BYTE   INSEG    CODE           ?PR?UI_COMPASSMENU_TIME?COMPASSMENU
FF0013H   FF0015H   000003H   ---    OFFS..   CODE           ?PR?IV?2
FF0016H   FF0069H   000054H   BYTE   INSEG    CODE           ?PR?SPI_DMA_CONFIG?OLED
FF006AH   FF006AH   000001H   BYTE   INSEG    CODE           ?PR?INT0_ISR?MAIN
FF006BH   FF006DH   000003H   ---    OFFS..   CODE           ?PR?IV?13
FF006EH   FF012AH   0000BDH   BYTE   INSEG    CODE           ?PR?IU_THREE?THREEMENU
L251 LINKER/LOCATER V4.66.93.0                                                        04/24/2024  23:59:23  PAGE 3


FF012BH   FF012DH   000003H   ---    OFFS..   CODE           ?CO?isr?1
FF012EH   FF0131H   000004H   BYTE   UNIT     CODE           ?PR?LMUL?STC_MDU32
FF0132H   FF0132H   000001H   BYTE   INSEG    CODE           ?PR?INT1_ISR?MAIN
FF0133H   FF0135H   000003H   ---    OFFS..   CODE           ?CO?isr?2
FF0136H   FF0139H   000004H   BYTE   UNIT     CODE           ?PR?ULDIV?STC_MDU32
FF013AH   FF013AH   000001H   ---    ---      **GAP**
FF013BH   FF013DH   000003H   ---    OFFS..   CODE           ?CO?isr?3
FF013EH   FF0142H   000005H   ---    ---      **GAP**
FF0143H   FF0145H   000003H   ---    OFFS..   CODE           ?CO?isr?4
FF0146H   FF014AH   000005H   ---    ---      **GAP**
FF014BH   FF014DH   000003H   ---    OFFS..   CODE           ?CO?isr?5
FF014EH   FF0152H   000005H   ---    ---      **GAP**
FF0153H   FF0155H   000003H   ---    OFFS..   CODE           ?CO?isr?6
FF0156H   FF015AH   000005H   ---    ---      **GAP**
FF015BH   FF015DH   000003H   ---    OFFS..   CODE           ?CO?isr?7
FF015EH   FF0162H   000005H   ---    ---      **GAP**
FF0163H   FF0165H   000003H   ---    OFFS..   CODE           ?CO?isr?8
FF0166H   FF016AH   000005H   ---    ---      **GAP**
FF016BH   FF016DH   000003H   ---    OFFS..   CODE           ?CO?isr?9
FF016EH   FF0172H   000005H   ---    ---      **GAP**
FF0173H   FF0175H   000003H   ---    OFFS..   CODE           ?CO?isr?10
FF0176H   FF017AH   000005H   ---    ---      **GAP**
FF017BH   FF017DH   000003H   ---    OFFS..   CODE           ?CO?isr?11
FF017EH   FF0182H   000005H   ---    ---      **GAP**
FF0183H   FF0185H   000003H   ---    OFFS..   CODE           ?CO?isr?12
FF0186H   FF018AH   000005H   ---    ---      **GAP**
FF018BH   FF018DH   000003H   ---    OFFS..   CODE           ?CO?isr?13
FF018EH   FF0192H   000005H   ---    ---      **GAP**
FF0193H   FF0195H   000003H   ---    OFFS..   CODE           ?CO?isr?14
FF0196H   FF019AH   000005H   ---    ---      **GAP**
FF019BH   FF019DH   000003H   ---    OFFS..   CODE           ?CO?isr?15
FF019EH   FF01A2H   000005H   ---    ---      **GAP**
FF01A3H   FF01A5H   000003H   ---    OFFS..   CODE           ?CO?isr?16
FF01A6H   FF01AAH   000005H   ---    ---      **GAP**
FF01ABH   FF01ADH   000003H   ---    OFFS..   CODE           ?CO?isr?17
FF01AEH   FF01B2H   000005H   ---    ---      **GAP**
FF01B3H   FF01B5H   000003H   ---    OFFS..   CODE           ?CO?isr?18
FF01B6H   FF01BAH   000005H   ---    ---      **GAP**
FF01BBH   FF01BDH   000003H   ---    OFFS..   CODE           ?CO?isr?19
FF01BEH   FF01C2H   000005H   ---    ---      **GAP**
FF01C3H   FF01C5H   000003H   ---    OFFS..   CODE           ?CO?isr?20
FF01C6H   FF01CAH   000005H   ---    ---      **GAP**
FF01CBH   FF01CDH   000003H   ---    OFFS..   CODE           ?CO?isr?21
FF01CEH   FF01D2H   000005H   ---    ---      **GAP**
FF01D3H   FF01D5H   000003H   ---    OFFS..   CODE           ?CO?isr?22
FF01D6H   FF01DAH   000005H   ---    ---      **GAP**
FF01DBH   FF01DFH   000005H   ---    OFFS..   CODE           ?CO?isr?23
FF01E0H   FF3BD7H   0039F8H   BYTE   UNIT     CODE           ?CO?OLED
FF3BD8H   FF3ED5H   0002FEH   BYTE   INSEG    CODE           ?PR?IU_SECONDARY?SECONDARYMENU
FF3ED6H   FF4138H   000263H   BYTE   INSEG    CODE           ?PR?OLED_16_16VABC?OLED
FF4139H   FF4384H   00024CH   BYTE   INSEG    CODE           ?PR?IU_TVMODE?TV_MODE
FF4385H   FF45C5H   000241H   BYTE   INSEG    CODE           ?PR?TVMODE_1?TV_MODE
FF45C6H   FF47E1H   00021CH   BYTE   INSEG    CODE           ?PR?IU_BATTERY_CHEEK_RENOVATE?OLED
FF47E2H   FF49EAH   000209H   BYTE   INSEG    CODE           ?PR?OLED_8X8X3_MOV?OLED
FF49EBH   FF4BD6H   0001ECH   BYTE   INSEG    CODE           ?PR?SET_KEY?LOGIC
FF4BD7H   FF4DBFH   0001E9H   BYTE   INSEG    CODE           ?PR?BATTERY_PERCENTAGE?ADC
FF4DC0H   FF4F94H   0001D5H   BYTE   INSEG    CODE           ?PR?IU_MAIN_MENU?MAIN_MENU
FF4F95H   FF5143H   0001AFH   BYTE   INSEG    CODE           ?PR?KZ_ISR?MAIN
FF5144H   FF52D8H   000195H   BYTE   INSEG    CODE           ?PR?TIME_INTERRUPTION_1S?TIME_INTERRUPTION
FF52D9H   FF5468H   000190H   BYTE   INSEG    CODE           ?PR?MAIN?MAIN
FF5469H   FF55F7H   00018FH   BYTE   INSEG    CODE           ?PR?TVMODE_INT?TV_MODE
FF55F8H   FF5782H   00018BH   BYTE   INSEG    CODE           ?PR?UI_SECONDARYMENU?SECONDARYMENU
FF5783H   FF590BH   000189H   BYTE   INSEG    CODE           ?PR?MAGNETOMETER_MEASURE?BMC050
FF590CH   FF5A6EH   000163H   BYTE   INSEG    CODE           ?PR?UI_SEMENU_CURSOR_NUM?SECONDARYMENU
FF5A6FH   FF5BC4H   000156H   BYTE   INSEG    CODE           ?PR?TVMODE_2?TV_MODE
L251 LINKER/LOCATER V4.66.93.0                                                        04/24/2024  23:59:23  PAGE 4


FF5BC5H   FF5D0EH   00014AH   BYTE   INSEG    CODE           ?PR?UI_MAIN?MAIN_MENU
FF5D0FH   FF5E45H   000137H   BYTE   INSEG    CODE           ?PR?OLED_ALARMCLOCK_ZQ?OLED
FF5E46H   FF5F65H   000120H   BYTE   INSEG    CODE           ?PR?SLEEPQUEUE_AHEADW1?DATA
FF5F66H   FF607BH   000116H   BYTE   INSEG    CODE           ?PR?SLEEPMODE_ON?SLEEPMODE
FF607CH   FF6189H   00010EH   BYTE   INSEG    CODE           ?PR?ALARM_CONVERSION_32TO16?DATA
FF618AH   FF6292H   000109H   BYTE   INSEG    CODE           ?PR?ESC_KEY?LOGIC
FF6293H   FF6397H   000105H   BYTE   INSEG    CODE           ?PR?BH1745_RDAT?BH1745
FF6398H   FF6493H   0000FCH   BYTE   INSEG    CODE           ?PR?TIME_COMPARISON?TV_MODE
FF6494H   FF658AH   0000F7H   BYTE   INSEG    CODE           ?PR?OLED_MEAN2_FILL_NUM2?OLED
FF658BH   FF667EH   0000F4H   BYTE   INSEG    CODE           ?PR?DEBUG_8X8?OLED
FF667FH   FF6770H   0000F2H   BYTE   INSEG    CODE           ?PR?SPL06_MATH_P?SPL06
FF6771H   FF685FH   0000EFH   BYTE   INSEG    CODE           ?PR?UI_SWITCH?UI
FF6860H   FF694EH   0000EFH   BYTE   INSEG    CODE           ?PR?SLEEPMODE_OFF?SLEEPMODE
FF694FH   FF6A3AH   0000ECH   BYTE   INSEG    CODE           ?PR?TVMODE2_INT?TV_MODE
FF6A3BH   FF6B24H   0000EAH   BYTE   INSEG    CODE           ?PR?ALARM_CONVERSION_16TO32?DATA
FF6B25H   FF6C00H   0000DCH   BYTE   INSEG    CODE           ?PR?ATAN?BMC050
FF6C01H   FF6CD6H   0000D6H   BYTE   INSEG    CODE           ?PR?DATA_GETMAX?DATA
FF6CD7H   FF6DA9H   0000D3H   BYTE   INSEG    CODE           ?PR?OLED_32X32?OLED
FF6DAAH   FF6E7AH   0000D1H   BYTE   INSEG    CODE           ?PR?UI_COMPASS_ANIMATION_1?COMPASSMENU
FF6E7BH   FF6F4AH   0000D0H   BYTE   INSEG    CODE           ?PR?SHIFEN_DH_Z?OLED
FF6F4BH   FF7018H   0000CEH   BYTE   INSEG    CODE           ?PR?ADD_KEY?LOGIC
FF7019H   FF70E5H   0000CDH   BYTE   INSEG    CODE           ?PR?IU_BATTERY_CHEEK?OLED
FF70E6H   FF71ACH   0000C7H   BYTE   INSEG    CODE           ?PR?ZF_8X16?OLED
FF71ADH   FF726FH   0000C3H   BYTE   INSEG    CODE           ?PR?OLED_PROGRESS_BAR?OLED
FF7270H   FF7328H   0000B9H   BYTE   INSEG    CODE           ?PR?ADC_FALG_0040?ADC
FF7329H   FF73E1H   0000B9H   BYTE   INSEG    CODE           ?PR?IU_BATTERY_ICON_S?OLED
FF73E2H   FF7494H   0000B3H   BYTE   INSEG    CODE           ?PR?OLED_INIT?OLED
FF7495H   FF753EH   0000AAH   BYTE   INSEG    CODE           ?PR?OLED_16_16V?OLED
FF753FH   FF75E7H   0000A9H   BYTE   INSEG    CODE           ?PR?TVMODE_3?TV_MODE
FF75E8H   FF768EH   0000A7H   BYTE   INSEG    CODE           ?PR?TVR?OLED
FF768FH   FF7734H   0000A6H   BYTE   INSEG    CODE           ?PR?UI_COMPASS_ANIMATION?COMPASSMENU
FF7735H   FF77D8H   0000A4H   BYTE   INSEG    CODE           ?PR?DATA00_CHANGE?DATA
FF77D9H   FF7877H   00009FH   BYTE   INSEG    CODE           ?PR?OLED_16X16_MOV?OLED
FF7878H   FF7911H   00009AH   BYTE   INSEG    CODE           ?PR?SPL06_R2?SPL06
FF7912H   FF79A9H   000098H   BYTE   INSEG    CODE           ?PR?IO_INIT?IO
FF79AAH   FF7A3FH   000096H   BYTE   INSEG    CODE           ?PR?FAST_SLEEPQUEUE_AHEADW1?DATA
FF7A40H   FF7AD5H   000096H   BYTE   INSEG    CODE           ?PR?UI_PRESSURE?TV_MODE
FF7AD6H   FF7B69H   000094H   BYTE   INSEG    CODE           ?PR?GET_TIME_C?DATA
FF7B6AH   FF7BF3H   00008AH   BYTE   INSEG    CODE           ?PR?ANGLE_CALCULATION?BMC050
FF7BF4H   FF7C79H   000086H   BYTE   INSEG    CODE           ?PR?IU_BATTERY_ICON_S_1?OLED
FF7C7AH   FF7CFCH   000083H   BYTE   INSEG    CODE           ?PR?SHT41_FALG_0004?SHT41
FF7CFDH   FF7D7DH   000081H   BYTE   INSEG    CODE           ?PR?UIDATA_FILL?SECONDARYMENU
FF7D7EH   FF7DFDH   000080H   BYTE   INSEG    CODE           ?PR?OLED_ALARMCLOCK_ZH?OLED
FF7DFEH   FF7E7CH   00007FH   BYTE   INSEG    CODE           ?PR?TIME_SHOW_S?TV_MODE
FF7E7DH   FF7EF8H   00007CH   BYTE   INSEG    CODE           ?PR?OLED_16X16?OLED
FF7EF9H   FF7F6EH   000076H   BYTE   INSEG    CODE           ?PR?DAT00_CHANGE?DATA
FF7F6FH   FF7FE2H   000074H   BYTE   INSEG    CODE           ?PR?ADC_GET_V1?ADC
FF7FE3H   FF8055H   000073H   BYTE   INSEG    CODE           ?PR?OLED_MEAN2_FILL_NUM?OLED
FF8056H   FF8068H   000013H   BYTE   UNIT     CODE           ?C_C51STARTUP
FF8069H   FF80C2H   00005AH   BYTE   UNIT     CODE           ?C_C51STARTUP?2
FF80C3H   FF80C5H   000003H   BYTE   UNIT     CODE           ?C_C51STARTUP?3
FF80C6H   FF8133H   00006EH   BYTE   INSEG    CODE           ?PR?DATA_GETMIN?DATA
FF8134H   FF819EH   00006BH   BYTE   INSEG    CODE           ?PR?SHIFEN?OLED
FF819FH   FF8203H   000065H   BYTE   INSEG    CODE           ?PR?GET_VB?ADC
FF8204H   FF8268H   000065H   BYTE   INSEG    CODE           ?PR?KEY_INT?IO
FF8269H   FF82CAH   000062H   BYTE   INSEG    CODE           ?PR?JUMP_SECONDARYMENU?LOGIC
FF82CBH   FF8328H   00005EH   BYTE   INSEG    CODE           ?PR?OLED_REGION_FILL?OLED
FF8329H   FF8384H   00005CH   BYTE   INSEG    CODE           ?PR?SET_TIME_C?DATA
FF8385H   FF83E0H   00005CH   BYTE   INSEG    CODE           ?PR?UI_THREEMENU?THREEMENU
FF83E1H   FF8439H   000059H   BYTE   INSEG    CODE           ?PR?ZF_8X8?OLED
FF843AH   FF848BH   000052H   BYTE   INSEG    CODE           ?PR?UI_HUMIDITY?TV_MODE
FF848CH   FF84DAH   00004FH   BYTE   INSEG    CODE           ?PR?GET_MAGNETISM_DAT?BMC050
FF84DBH   FF8529H   00004FH   BYTE   INSEG    CODE           ?PR?WEEK_CONVERSION?TV_MODE
FF852AH   FF8577H   00004EH   BYTE   INSEG    CODE           ?PR?KEY_THREAD1_NEW?LOGIC
FF8578H   FF85C2H   00004BH   BYTE   INSEG    CODE           ?PR?INS5699_TIMER?INS5699S
L251 LINKER/LOCATER V4.66.93.0                                                        04/24/2024  23:59:23  PAGE 5


FF85C3H   FF860CH   00004AH   BYTE   INSEG    CODE           ?PR?OLED_MEAN2_FILL2?OLED
FF860DH   FF8653H   000047H   BYTE   INSEG    CODE           ?PR?IU_BATTERY_CHEEK_RENOVATE_COUNT?OLED
FF8654H   FF8699H   000046H   BYTE   INSEG    CODE           ?PR?WAIT?IIC
FF869AH   FF86DFH   000046H   BYTE   INSEG    CODE           ?PR?INS5699_TIMEW?INS5699S
FF86E0H   FF8724H   000045H   BYTE   INSEG    CODE           ?PR?RFF?DATA
FF8725H   FF8767H   000043H   BYTE   INSEG    CODE           ?PR?SLEEPQUEUE_MOVELEFT?DATA
FF8768H   FF87AAH   000043H   BYTE   INSEG    CODE           ?PR?ARRAY_INITIALIZATION_?DATA
FF87ABH   FF87E8H   00003EH   BYTE   INSEG    CODE           ?PR?MAGNETOMETER_MEASURE_1?BMC050
FF87E9H   FF8825H   00003DH   BYTE   INSEG    CODE           ?PR?YUE_RI?OLED
FF8826H   FF8861H   00003CH   BYTE   INSEG    CODE           ?PR?JUMP_MAINMENU?LOGIC
FF8862H   FF889BH   00003AH   BYTE   INSEG    CODE           ?PR?SPI_DMA_TX?OLED
FF889CH   FF88D4H   000039H   BYTE   INSEG    CODE           ?PR?SHIFEN_DH?OLED
FF88D5H   FF890DH   000039H   BYTE   INSEG    CODE           ?PR?SLEEP_DELAY_TIME?TIME
FF890EH   FF8945H   000038H   BYTE   INSEG    CODE           ?PR?SPL06_INIT?SPL06
FF8946H   FF897CH   000037H   BYTE   INSEG    CODE           ?PR?NUMLONGGET?OLED
FF897DH   FF89B2H   000036H   BYTE   INSEG    CODE           ?PR?GET_VB_AVERAGE?ADC
FF89B3H   FF89E8H   000036H   BYTE   INSEG    CODE           ?PR?IIC_R1BIT?IIC
FF89E9H   FF8A1EH   000036H   BYTE   INSEG    CODE           ?PR?SPI_INIT?OLED
FF8A1FH   FF8A54H   000036H   BYTE   INSEG    CODE           ?PR?OLED_16_16V2?OLED
FF8A55H   FF8A89H   000035H   BYTE   INSEG    CODE           ?PR?IIC_W2BIT?IIC
FF8A8AH   FF8ABEH   000035H   BYTE   INSEG    CODE           ?PR?SPL06_PR_R_FLAG0008?SPL06
FF8ABFH   FF8AF2H   000034H   BYTE   INSEG    CODE           ?PR?GET_ADC12BITRESULT?ADC
FF8AF3H   FF8B26H   000034H   BYTE   INSEG    CODE           ?PR?UI_COMPASSMENU_INT?COMPASSMENU
FF8B27H   FF8B5AH   000034H   BYTE   INSEG    CODE           ?PR?OLED_MEAN2_FILL_NUM_10X?OLED
FF8B5BH   FF8B8EH   000034H   BYTE   INSEG    CODE           ?PR?SHT41_R_16BIT?SHT41
FF8B8FH   FF8BC2H   000034H   BYTE   INSEG    CODE           ?PR?SPL06_PR_P_FLAG0010?SPL06
FF8BC3H   FF8BF4H   000032H   BYTE   INSEG    CODE           ?PR?MAGNETOMETER_FALG_0080?BMC050
FF8BF5H   FF8C26H   000032H   BYTE   INSEG    CODE           ?PR?OLED_FILL?OLED
FF8C27H   FF8C58H   000032H   BYTE   UNIT     CODE           ?C?LIB_CODE
FF8C59H   FF8C89H   000031H   BYTE   INSEG    CODE           ?PR?MAGNETOMETER_INITI?BMC050
FF8C8AH   FF8CB8H   00002FH   BYTE   INSEG    CODE           ?PR?UI_SECONDARYMENU_G?SECONDARYMENU
FF8CB9H   FF8CE6H   00002EH   BYTE   INSEG    CODE           ?PR?FLAG_HANDLE?FLAG
FF8CE7H   FF8D14H   00002EH   BYTE   INSEG    CODE           ?PR?CLOCK_INT?IO
FF8D15H   FF8D41H   00002DH   BYTE   INSEG    CODE           ?PR?ADC_INIT?ADC
FF8D42H   FF8D6CH   00002BH   BYTE   INSEG    CODE           ?PR?IU_MAIN_MENU_SWITCH?MAIN_MENU
FF8D6DH   FF8D96H   00002AH   BYTE   INSEG    CODE           ?PR?BH1745_INIT?BH1745
FF8D97H   FF8DBFH   000029H   BYTE   INSEG    CODE           ?PR?OLED_MEAN2_FILL?OLED
FF8DC0H   FF8DE5H   000026H   BYTE   INSEG    CODE           ?PR?BH1745R_FLAG0002?BH1745
FF8DE6H   FF8E0BH   000026H   BYTE   INSEG    CODE           ?PR?UI_SEMENU_CURSOR_NUM_2?SECONDARYMENU
FF8E0CH   FF8E30H   000025H   BYTE   INSEG    CODE           ?PR?IIC_W1BIT?IIC
FF8E31H   FF8E55H   000025H   BYTE   INSEG    CODE           ?PR?IU_THREAD?UI
FF8E56H   FF8E79H   000024H   BYTE   INSEG    CODE           ?PR?TIME_SYNCHRONIZATION?TV_MODE
FF8E7AH   FF8E9CH   000023H   BYTE   INSEG    CODE           ?PR?SPI_DMA_SWITCH?OLED
FF8E9DH   FF8EBDH   000021H   BYTE   INSEG    CODE           ?PR?OLED_SET_POS?OLED
FF8EBEH   FF8EDEH   000021H   BYTE   INSEG    CODE           ?PR?UI_S_F2?SECONDARYMENU
FF8EDFH   FF8EFEH   000020H   BYTE   INSEG    CODE           ?PR?ARRAY_FILL?DATA
FF8EFFH   FF8F1DH   00001FH   BYTE   INSEG    CODE           ?PR?TEST_10?LOGIC
FF8F1EH   FF8F3BH   00001EH   BYTE   INSEG    CODE           ?PR?CONVERT_1?BMC050
FF8F3CH   FF8F59H   00001EH   BYTE   UNIT     CODE           ?CO?BMC050
FF8F5AH   FF8F77H   00001EH   BYTE   INSEG    CODE           ?PR?UI_S_F?SECONDARYMENU
FF8F78H   FF8F95H   00001EH   BYTE   INSEG    CODE           ?PR?SLEEP_THREAD?TIME
FF8F96H   FF8FB2H   00001DH   BYTE   INSEG    CODE           ?PR?MAGNETOMETER_OPEN?BMC050
FF8FB3H   FF8FCEH   00001CH   BYTE   INSEG    CODE           ?PR?ARRAY_INITIALIZATION_16?DATA
FF8FCFH   FF8FEAH   00001CH   BYTE   INSEG    CODE           ?PR?RECVDATA?IIC
FF8FEBH   FF9005H   00001BH   BYTE   INSEG    CODE           ?PR?BCD_TO_X10?DATA
FF9006H   FF901EH   000019H   BYTE   INSEG    CODE           ?PR?X10_TO_BCD?DATA
FF901FH   FF9037H   000019H   BYTE   INSEG    CODE           ?PR?SLEEPQUEUE_BEHINDW?DATA
FF9038H   FF9050H   000019H   BYTE   INSEG    CODE           ?PR?IIC_INT?IIC
FF9051H   FF9069H   000019H   BYTE   INSEG    CODE           ?PR?SENDNAK?IIC
FF906AH   FF9082H   000019H   BYTE   INSEG    CODE           ?PR?BUZZER_FALG_0020?IO
FF9083H   FF909BH   000019H   BYTE   INSEG    CODE           ?PR?SPI_DMA?OLED
FF909CH   FF90B3H   000018H   BYTE   INSEG    CODE           ?PR?SENDACK?IIC
FF90B4H   FF90CBH   000018H   BYTE   INSEG    CODE           ?PR?OLED_POW?IO
FF90CCH   FF90E3H   000018H   BYTE   INSEG    CODE           ?PR?IU_16X8_FILL?OLED
FF90E4H   FF90FBH   000018H   BYTE   INSEG    CODE           ?PR?SPI_DMA_DELAY?OLED
L251 LINKER/LOCATER V4.66.93.0                                                        04/24/2024  23:59:23  PAGE 6


FF90FCH   FF9112H   000017H   BYTE   INSEG    CODE           ?PR?SENDDATA?IIC
FF9113H   FF9129H   000017H   BYTE   INSEG    CODE           ?PR?SPL06_PR_R?SPL06
FF912AH   FF913FH   000016H   BYTE   INSEG    CODE           ?PR?LCD_WRIT_BUS?OLED
FF9140H   FF9155H   000016H   BYTE   INSEG    CODE           ?PR?DELAY_MS?TIME
FF9156H   FF916AH   000015H   BYTE   INSEG    CODE           ?PR?ARRAY_INITIALIZATION_8?DATA
FF916BH   FF917FH   000015H   BYTE   INSEG    CODE           ?PR?OLED_FZQP?OLED
FF9180H   FF9193H   000014H   BYTE   INSEG    CODE           ?PR?VB_SET?ADC
FF9194H   FF91A7H   000014H   BYTE   INSEG    CODE           ?PR?SET_WEEK?DATA
FF91A8H   FF91BBH   000014H   BYTE   INSEG    CODE           ?PR?SHT41_R_HIGH?SHT41
FF91BCH   FF91CFH   000014H   BYTE   INSEG    CODE           ?PR?SLEEP_DELAY_HALFMS?TIME
FF91D0H   FF91E2H   000013H   BYTE   INSEG    CODE           ?PR?GET_GBDAT?DATA
FF91E3H   FF91F5H   000013H   BYTE   INSEG    CODE           ?PR?GET_SCDAT?DATA
FF91F6H   FF9208H   000013H   BYTE   INSEG    CODE           ?PR?GET_WEEK?DATA
FF9209H   FF921BH   000013H   BYTE   INSEG    CODE           ?PR?OLED_WRCMD?OLED
FF921CH   FF922CH   000011H   BYTE   INSEG    CODE           ?PR?UI_COMPASSMENU?COMPASSMENU
FF922DH   FF923DH   000011H   BYTE   INSEG    CODE           ?PR?GET_SCDAT3?DATA
FF923EH   FF924EH   000011H   BYTE   INSEG    CODE           ?PR?GET_SC?DATA
FF924FH   FF925EH   000010H   BYTE   INSEG    CODE           ?PR?START?IIC
FF925FH   FF926EH   000010H   BYTE   INSEG    CODE           ?PR?STOP?IIC
FF926FH   FF927EH   000010H   BYTE   INSEG    CODE           ?PR?RECVACK?IIC
FF927FH   FF928DH   00000FH   BYTE   INSEG    CODE           ?PR?OLED_WRDAT?OLED
FF928EH   FF9299H   00000CH   BYTE   INSEG    CODE           ?PR?TVMODE3_INT?TV_MODE
FF929AH   FF92A3H   00000AH   BYTE   INSEG    CODE           ?PR?MAGNETOMETER_CLOSE?BMC050
FF92A4H   FF92ADH   00000AH   BYTE   INSEG    CODE           ?PR?RESET54?IO
FF92AEH   FF92B6H   000009H   BYTE   INSEG    CODE           ?PR?BATTERY_ON_OFF?IO
FF92B7H   FF92BFH   000009H   BYTE   INSEG    CODE           ?PR?BATTERY_ON_ON?IO
FF92C0H   FF92C7H   000008H   BYTE   INSEG    CODE           ?PR?SHT41_INIT?SHT41
FF92C8H   FF92CEH   000007H   BYTE   INSEG    CODE           ?PR?BUZZER_CLOSE?IO
FF92CFH   FF92D5H   000007H   BYTE   INSEG    CODE           ?PR?BUZZER_OPEN?IO
FF92D6H   FF92DBH   000006H   BYTE   UNIT     CODE           ?PR?LIMUL?STC_MDU32
FF92DCH   FF92E1H   000006H   BYTE   UNIT     CODE           ?PR?ULIDIV?STC_MDU32
FF92E2H   FF9AFBH   00081AH   BYTE   UNIT     HCONST         ?C_INITHDATA
FF9AFCH   FF9F2BH   000430H   BYTE   UNIT     HCONST         ?C_INITEDATA

* * * * * * * * *   R E M O V E D     S E G M E N T S   * * * * * * * *
   *DEL*:           000014H   BYTE   INSEG    CODE           ?PR?BH1745_RDATX4?BH1745
   *DEL*:           0000F0H   BYTE   INSEG    CODE           ?PR?GGG?BMC050
   *DEL*:           000016H   BYTE   INSEG    CODE           ?PR?JUDGING_RANGE?DATA
   *DEL*:           000013H   BYTE   INSEG    CODE           ?PR?ABS_DIFFERENCE_16?DATA
   *DEL*:           000028H   BYTE   INSEG    CODE           ?PR?SLEEPQUEUE_MOVELEFT2?DATA
   *DEL*:           00001AH   BYTE   INSEG    CODE           ?PR?FAST_SLEEPQUEUE_AHEADW2?DATA
   *DEL*:           000019H   BYTE   INSEG    CODE           ?PR?IIC_RESPONSETEXT_1BIT?IIC
   *DEL*:           00003BH   BYTE   INSEG    CODE           ?PR?IIC_RESPONSETEXT?IIC
   *DEL*:           00006EH   BYTE   INSEG    CODE           ?PR?INS5699_TIMER_CLEAN?INS5699S
   *DEL*:           00000DH   BYTE   INSEG    CODE           ?PR?OLED_POW_LOW?IO
   *DEL*:           000042H   BYTE   INSEG    CODE           ?PR?BUZZER_TASK?MAIN
   *DEL*:           000005H   BYTE   INSEG    CODE           ?PR?OLED_ED?OLED
   *DEL*:           0000A1H   BYTE   INSEG    CODE           ?PR?OLED_GD?OLED
   *DEL*:           000028H   BYTE   INSEG    CODE           ?PR?OLED_16_16V2A?OLED
   *DEL*:           00006AH   BYTE   INSEG    CODE           ?PR?NIAN?OLED
   *DEL*:           000024H   BYTE   INSEG    CODE           ?PR?SHT41_R_HIGH1?SHT41
   *DEL*:           0000A9H   BYTE   INSEG    CODE           ?PR?SPL06_PR?SPL06
   *DEL*:           00005BH   BYTE   INSEG    CODE           ?PR?SPL06_C0R?SPL06
   *DEL*:           000004H   BYTE   UNIT     EDATA          ?ED?SPL06_PR?SPL06
   *DEL*:           000001H   BYTE   INSEG    CODE           ?PR?KEY_THREAD?SW
   *DEL*:           00000AH   BYTE   INSEG    CODE           ?PR?DELAY50US?TIME
   *DEL*:           000013H   BYTE   INSEG    CODE           ?PR?TIMER0INIT?TIME
   *DEL*:           00000FH   BYTE   INSEG    CODE           ?PR?DELAY?TIME
   *DEL*:           000070H   BYTE   INSEG    CODE           ?PR?DMA_CONFIG?UART1
   *DEL*:           00001EH   BYTE   INSEG    CODE           ?PR?UART1_BIT?UART1
   *DEL*:           000048H   BYTE   INSEG    CODE           ?PR?UART1_TX_TASK?UART1
   *DEL*:           00005AH   BYTE   INSEG    CODE           ?PR?UART1_DMA?UART1
   *DEL*:           000048H   BYTE   INSEG    CODE           ?PR?UART1_TX_TASK2?UART1
   *DEL*:           00002DH   BYTE   INSEG    CODE           ?PR?UART1_CONFIG?UART1
   *DEL*:           000019H   BYTE   INSEG    CODE           ?PR?UART1_TX?UART1
L251 LINKER/LOCATER V4.66.93.0                                                        04/24/2024  23:59:23  PAGE 7


   *DEL*:           000004H   BYTE   UNIT     CODE           ?PR?SLDIV?STC_MDU32



OVERLAY MAP OF MODULE:   ..\firmware\STC32F_LowPowerClock (ADC)


FUNCTION/MODULE                              BIT_GROUP   EDATA_GROUP
--> CALLED FUNCTION/MODULE                  START  STOP  START  STOP
====================================================================
INT0_Isr/main                               ----- -----  ----- -----

*** NEW ROOT ******************************

INT1_Isr/main                               ----- -----  ----- -----

*** NEW ROOT ******************************

KZ_isr/main                                 ----- -----  ----- -----
  +--> Add_key/logic
  +--> SET_key/logic
  +--> ESC_key/logic
  +--> SPI_DMA/OLED

Add_key/logic                               ----- -----  ----- -----
  +--> data00_Change/DATA

data00_Change/DATA                          ----- -----  ----- -----
  +--> data_GetMax/DATA
  +--> data_GetMin/DATA

data_GetMax/DATA                            ----- -----  ----- -----

data_GetMin/DATA                            ----- -----  ----- -----

SET_key/logic                               ----- -----  ----- -----
  +--> test_10/logic
  +--> Alarm_conversion_32TO16/DATA
  +--> jump_SecondaryMenu/logic
  +--> GET_SCdat3/DATA
  +--> jump_MainMenu/logic

test_10/logic                               ----- -----  ----- -----

Alarm_conversion_32TO16/DATA                ----- -----  ----- -----

jump_SecondaryMenu/logic                    ----- -----  ----- -----
  +--> GET_SC/DATA
  +--> GET_time_c/DATA

GET_SC/DATA                                 ----- -----  ----- -----

GET_time_c/DATA                             ----- -----  ----- -----
  +--> BCD_to_X10/DATA
  +--> GET_WEEK/DATA

BCD_to_X10/DATA                             ----- -----  ----- -----

GET_WEEK/DATA                               ----- -----  ----- -----

GET_SCdat3/DATA                             ----- -----  ----- -----
  +--> GET_GBdat/DATA
  +--> GET_SC/DATA

GET_GBdat/DATA                              ----- -----  ----- -----
L251 LINKER/LOCATER V4.66.93.0                                                        04/24/2024  23:59:23  PAGE 8


  +--> GET_SC/DATA

jump_MainMenu/logic                         ----- -----  ----- -----
  +--> GET_SCdat/DATA
  +--> GET_SC/DATA

GET_SCdat/DATA                              ----- -----  ----- -----
  +--> GET_SC/DATA

ESC_key/logic                               ----- -----  ----- -----
  +--> Alarm_conversion_16TO32/DATA
  +--> test_10/logic
  +--> jump_SecondaryMenu/logic
  +--> GET_SCdat3/DATA
  +--> jump_MainMenu/logic

Alarm_conversion_16TO32/DATA                ----- -----  ----- -----

SPI_DMA/OLED                                ----- -----  ----- -----

*** NEW ROOT ******************************

?C_C51STARTUP                               ----- -----  ----- -----

*** NEW ROOT ******************************

?C_C51STARTUP?3                             ----- -----  ----- -----
  +--> main/main

main/main                                   ----- -----  ----- -----
  +--> delay_ms/time
  +--> IO_Init/IO
  +--> OLED_POW/IO
  +--> RESET54/IO
  +--> ADC_init/ADC
  +--> Clock_INT/IO
  +--> key_int/IO
  +--> IIC_int/IIC
  +--> Array_Initialization_/DATA
  +--> IIC_W2bit/IIC
  +--> Delay10us/time
  +--> BH1745_Init/BH1745
  +--> SHT41_Init/SHT41
  +--> SPL06_Init/SPL06
  +--> SPI_init/OLED
  +--> SPI_DMA_Config/OLED
  +--> Magnetometer_initi/BMC050
  +--> OLED_Init/OLED
  +--> OLED_Fill/OLED
  +--> INS5699_timeW/INS5699S
  +--> INS5699_timeR/INS5699S
  +--> SleepQueue_aheadW1/DATA
  +--> Time_Interruption_1S/Time_Interruption
  +--> flag_handle/flag
  +--> dat00_Change/DATA
  +--> IU_Thread/UI
  +--> key_thread1_new/logic
  +--> SleepQueue_MoveLeft/DATA
  +--> SPI_DMA_delay/OLED
  +--> Sleep_Thread/time
  +--> UI_switch/UI
  +--> SHT41_falg_0004/SHT41
  +--> SPL06_PR_R_flag0008/SPL06
  +--> SPL06_PR_P_flag0010/SPL06
  +--> BH1745R_flag0002/BH1745
L251 LINKER/LOCATER V4.66.93.0                                                        04/24/2024  23:59:23  PAGE 9


  +--> Buzzer_falg_0020/IO
  +--> ADC_falg_0040/ADC
  +--> Magnetometer_falg_0080/BMC050

delay_ms/time                               ----- -----  ----- -----

IO_Init/IO                                  ----- -----  ----- -----
  +--> Buzzer_Close/IO

Buzzer_Close/IO                             ----- -----  ----- -----

OLED_POW/IO                                 ----- -----  ----- -----

RESET54/IO                                  ----- -----  ----- -----

ADC_init/ADC                                ----- -----  ----- -----
  +--> delay_ms/time
  +--> Get_VB/ADC
  +--> VB_SET/ADC

Get_VB/ADC                                  ----- -----  03ABH 03ABH
  +--> Battery_ON_ON/IO
  +--> Get_ADC12bitResult/ADC
  +--> Battery_ON_OFF/IO
  +--> ULDIV/STC_MDU32
  +--> LIMUL/STC_MDU32

Battery_ON_ON/IO                            ----- -----  ----- -----

Get_ADC12bitResult/ADC                      ----- -----  ----- -----

Battery_ON_OFF/IO                           ----- -----  ----- -----

ULDIV/STC_MDU32                             ----- -----  ----- -----

LIMUL/STC_MDU32                             ----- -----  ----- -----

VB_SET/ADC                                  ----- -----  ----- -----

Clock_INT/IO                                ----- -----  ----- -----

key_int/IO                                  ----- -----  ----- -----

IIC_int/IIC                                 ----- -----  ----- -----

Array_Initialization_/DATA                  ----- -----  ----- -----
  +--> Array_Initialization_16/DATA
  +--> Array_Initialization_8/DATA

Array_Initialization_16/DATA                ----- -----  ----- -----

Array_Initialization_8/DATA                 ----- -----  ----- -----

IIC_W2bit/IIC                               ----- -----  ----- -----
  +--> Start/IIC
  +--> SendData/IIC
  +--> RecvACK/IIC
  +--> Stop/IIC

Start/IIC                                   ----- -----  ----- -----
  +--> Wait/IIC

Wait/IIC                                    ----- -----  ----- -----

SendData/IIC                                ----- -----  ----- -----
L251 LINKER/LOCATER V4.66.93.0                                                        04/24/2024  23:59:23  PAGE 10


  +--> Wait/IIC

RecvACK/IIC                                 ----- -----  ----- -----
  +--> Wait/IIC

Stop/IIC                                    ----- -----  ----- -----
  +--> Wait/IIC

Delay10us/time                              ----- -----  ----- -----

BH1745_Init/BH1745                          ----- -----  ----- -----
  +--> IIC_W2bit/IIC
  +--> delay_ms/time

SHT41_Init/SHT41                            ----- -----  ----- -----
  +--> IIC_W1bit/IIC

IIC_W1bit/IIC                               ----- -----  ----- -----
  +--> Start/IIC
  +--> SendData/IIC
  +--> RecvACK/IIC
  +--> Stop/IIC

SPL06_Init/SPL06                            ----- -----  ----- -----
  +--> IIC_W2bit/IIC
  +--> delay_ms/time

SPI_init/OLED                               ----- -----  ----- -----

SPI_DMA_Config/OLED                         ----- -----  ----- -----

Magnetometer_initi/BMC050                   ----- -----  ----- -----
  +--> IIC_W2bit/IIC
  +--> Sleep_delay_Time/time

Sleep_delay_Time/time                       ----- -----  ----- -----
  +--> Sleep_delay_HalfMs/time

Sleep_delay_HalfMs/time                     ----- -----  ----- -----

OLED_Init/OLED                              ----- -----  ----- -----
  +--> Sleep_delay_Time/time
  +--> OLED_WrCmd/OLED
  +--> OLED_Fill/OLED
  +--> OLED_Set_Pos/OLED

OLED_WrCmd/OLED                             ----- -----  ----- -----
  +--> SPI_DMA_delay/OLED
  +--> LCD_Writ_Bus/OLED

SPI_DMA_delay/OLED                          ----- -----  ----- -----

LCD_Writ_Bus/OLED                           ----- -----  ----- -----
  +--> SPI_DMA_delay/OLED

OLED_Fill/OLED                              ----- -----  ----- -----
  +--> OLED_WrCmd/OLED
  +--> OLED_WrDat/OLED

OLED_WrDat/OLED                             ----- -----  ----- -----
  +--> SPI_DMA_delay/OLED
  +--> LCD_Writ_Bus/OLED

OLED_Set_Pos/OLED                           ----- -----  ----- -----
  +--> OLED_WrCmd/OLED
L251 LINKER/LOCATER V4.66.93.0                                                        04/24/2024  23:59:23  PAGE 11



INS5699_timeW/INS5699S                      ----- -----  03ABH 03ABH
  +--> Start/IIC
  +--> SendData/IIC
  +--> RecvACK/IIC
  +--> Stop/IIC

INS5699_timeR/INS5699S                      ----- -----  ----- -----
  +--> Start/IIC
  +--> SendData/IIC
  +--> RecvACK/IIC
  +--> RecvData/IIC
  +--> SendNAK/IIC
  +--> SendACK/IIC
  +--> Stop/IIC

RecvData/IIC                                ----- -----  ----- -----
  +--> Wait/IIC

SendNAK/IIC                                 ----- -----  ----- -----
  +--> Wait/IIC

SendACK/IIC                                 ----- -----  ----- -----
  +--> Wait/IIC

SleepQueue_aheadW1/DATA                     ----- -----  03B0H 03B2H
  +--> RFF/DATA

RFF/DATA                                    ----- -----  ----- -----

Time_Interruption_1S/Time_Interruption      ----- -----  ----- -----
  +--> IIC_R1bit/IIC
  +--> INS5699_timeR/INS5699S
  +--> ADC_Get_V1/ADC
  +--> IIC_W2bit/IIC
  +--> SHT41_R_High/SHT41
  +--> SPL06_PR_R/SPL06
  +--> ULIDIV/STC_MDU32
  +--> SleepQueue_aheadW1/DATA
  +--> UI_SecondaryMenu_G/SecondaryMenu

IIC_R1bit/IIC                               ----- -----  ----- -----
  +--> Start/IIC
  +--> SendData/IIC
  +--> RecvACK/IIC
  +--> RecvData/IIC
  +--> SendNAK/IIC
  +--> Stop/IIC

ADC_Get_V1/ADC                              ----- -----  ----- -----
  +--> SleepQueue_aheadW1/DATA

SHT41_R_High/SHT41                          ----- -----  ----- -----
  +--> IIC_W1bit/IIC
  +--> SleepQueue_aheadW1/DATA

SPL06_PR_R/SPL06                            ----- -----  ----- -----
  +--> IIC_W2bit/IIC
  +--> SleepQueue_aheadW1/DATA

ULIDIV/STC_MDU32                            ----- -----  ----- -----

UI_SecondaryMenu_G/SecondaryMenu            ----- -----  ----- -----
  +--> UI_SeMenu_Cursor_num/SecondaryMenu

L251 LINKER/LOCATER V4.66.93.0                                                        04/24/2024  23:59:23  PAGE 12


UI_SeMenu_Cursor_num/SecondaryMenu          ----- -----  03ABH 03AEH
  +--> UI_S_F/SecondaryMenu
  +--> UI_S_F2/SecondaryMenu
  +--> UIData_fill/SecondaryMenu
  +--> TVR/OLED
  +--> OLED_16_16Vabc/OLED

UI_S_F/SecondaryMenu                        ----- -----  ----- -----
  +--> GET_SCdat/DATA

UI_S_F2/SecondaryMenu                       ----- -----  ----- -----
  +--> GET_SCdat/DATA
  +--> GET_SC/DATA

UIData_fill/SecondaryMenu                   ----- -----  ----- -----
  +--> OLED_AlarmClock_ZQ/OLED
  +--> OLED_AlarmClock_ZH/OLED
  +--> OLED_Mean2_fill/OLED
  +--> OLED_Mean2_fill2/OLED
  +--> OLED_Mean2_fill_num2/OLED

OLED_AlarmClock_ZQ/OLED                     ----- -----  ----- -----

OLED_AlarmClock_ZH/OLED                     ----- -----  ----- -----
  +--> OLED_Mean2_fill_num_10X/OLED
  +--> OLED_Mean2_fill_num/OLED

OLED_Mean2_fill_num_10X/OLED                ----- -----  ----- -----
  +--> OLED_Mean2_fill_num/OLED

OLED_Mean2_fill_num/OLED                    ----- -----  ----- -----

OLED_Mean2_fill/OLED                        ----- -----  ----- -----

OLED_Mean2_fill2/OLED                       ----- -----  ----- -----
  +--> OLED_Mean2_fill/OLED

OLED_Mean2_fill_num2/OLED                   ----- -----  03AFH 03B1H
  +--> OLED_Mean2_fill/OLED
  +--> OLED_Mean2_fill_num/OLED
  +--> numlongGet/OLED

numlongGet/OLED                             ----- -----  ----- -----

TVR/OLED                                    ----- -----  ----- -----

OLED_16_16Vabc/OLED                         20H.0 20H.0  03AFH 03B8H
  +--> OLED_Set_Pos/OLED
  +--> OLED_WrDat/OLED

flag_handle/flag                            ----- -----  ----- -----
  +--> OLED_WrCmd/OLED
  +--> OLED_POW/IO

dat00_Change/DATA                           ----- -----  ----- -----
  +--> GET_SCdat/DATA
  +--> GET_SC/DATA
  +--> SET_time_c/DATA
  +--> INS5699_timeW/INS5699S
  +--> SleepMode_ON/SleepMode
  +--> SleepMode_OFF/SleepMode

SET_time_c/DATA                             ----- -----  ----- -----
  +--> X10_to_BCD/DATA
  +--> SET_WEEK/DATA
L251 LINKER/LOCATER V4.66.93.0                                                        04/24/2024  23:59:23  PAGE 13



X10_to_BCD/DATA                             ----- -----  ----- -----

SET_WEEK/DATA                               ----- -----  ----- -----

SleepMode_ON/SleepMode                      ----- -----  ----- -----
  +--> IIC_W2bit/IIC
  +--> Battery_ON_OFF/IO

SleepMode_OFF/SleepMode                     ----- -----  ----- -----
  +--> IO_Init/IO
  +--> OLED_POW/IO
  +--> RESET54/IO
  +--> ADC_init/ADC
  +--> Clock_INT/IO
  +--> key_int/IO
  +--> IIC_int/IIC
  +--> IIC_W2bit/IIC
  +--> Delay10us/time
  +--> SPI_init/OLED
  +--> SPI_DMA_Config/OLED
  +--> OLED_Init/OLED
  +--> delay_ms/time
  +--> INS5699_timeR/INS5699S
  +--> SleepQueue_aheadW1/DATA

IU_Thread/UI                                ----- -----  ----- -----
  +--> IU_Main_Menu/Main_Menu
  +--> IU_Secondary/SecondaryMenu
  +--> IU_Three/ThreeMenu
  +--> IU_TVMode/TV_Mode
  +--> UI_CompassMenu_time/CompassMenu

IU_Main_Menu/Main_Menu                      ----- -----  ----- -----
  +--> fast_SleepQueue_aheadW1/DATA
  +--> UI_main/Main_Menu
  +--> SleepQueue_behindW/DATA
  +--> data00_Change/DATA

fast_SleepQueue_aheadW1/DATA                ----- -----  03ABH 03AFH
  +--> RFF/DATA
  +--> array_fill/DATA
  +--> SleepQueue_aheadW1/DATA
  +--> SleepQueue_MoveLeft/DATA

array_fill/DATA                             ----- -----  ----- -----

SleepQueue_MoveLeft/DATA                    ----- -----  ----- -----
  +--> RFF/DATA

UI_main/Main_Menu                           ----- -----  ----- -----
  +--> OLED_32X32/OLED
  +--> OLED_16X16/OLED

OLED_32X32/OLED                             ----- -----  03ABH 03B2H
  +--> OLED_Set_Pos/OLED
  +--> SPI_DMA_switch/OLED
  +--> SPI_DMA_TX/OLED

SPI_DMA_switch/OLED                         ----- -----  ----- -----

SPI_DMA_TX/OLED                             ----- -----  ----- -----
  +--> SPI_DMA_delay/OLED

OLED_16X16/OLED                             ----- -----  03ABH 03AFH
L251 LINKER/LOCATER V4.66.93.0                                                        04/24/2024  23:59:23  PAGE 14


  +--> OLED_Set_Pos/OLED
  +--> SPI_DMA_switch/OLED
  +--> SPI_DMA_TX/OLED

SleepQueue_behindW/DATA                     ----- -----  ----- -----
  +--> RFF/DATA

IU_Secondary/SecondaryMenu                  ----- -----  ----- -----
  +--> fast_SleepQueue_aheadW1/DATA
  +--> UI_SecondaryMenu/SecondaryMenu
  +--> SleepQueue_behindW/DATA
  +--> GET_SCdat/DATA
  +--> GET_SC/DATA
  +--> data00_Change/DATA

UI_SecondaryMenu/SecondaryMenu              ----- -----  ----- -----
  +--> UI_SeMenu_Cursor_num_2/SecondaryMenu
  +--> GET_SCdat/DATA
  +--> TVR/OLED
  +--> OLED_16_16V2/OLED

UI_SeMenu_Cursor_num_2/SecondaryMenu        ----- -----  ----- -----
  +--> UI_SeMenu_Cursor_num/SecondaryMenu

OLED_16_16V2/OLED                           20H.0 20H.0  03ABH 03AEH
  +--> OLED_16_16V/OLED
  +--> OLED_FZQP/OLED

OLED_16_16V/OLED                            20H.1 20H.1  03AFH 03B3H
  +--> OLED_Set_Pos/OLED
  +--> SPI_DMA_switch/OLED
  +--> SPI_DMA_TX/OLED

OLED_FZQP/OLED                              ----- -----  ----- -----
  +--> OLED_Set_Pos/OLED
  +--> OLED_WrDat/OLED

IU_Three/ThreeMenu                          ----- -----  ----- -----
  +--> GET_SCdat3/DATA
  +--> data00_Change/DATA
  +--> data_GetMax/DATA
  +--> OLED_Progress_Bar/OLED
  +--> SleepQueue_aheadW1/DATA

OLED_Progress_Bar/OLED                      ----- -----  03ABH 03ABH
  +--> OLED_Set_Pos/OLED
  +--> OLED_WrDat/OLED
  +--> ZF_8X8/OLED

ZF_8X8/OLED                                 ----- -----  ----- -----
  +--> OLED_Set_Pos/OLED
  +--> SPI_DMA_switch/OLED
  +--> SPI_DMA_TX/OLED

IU_TVMode/TV_Mode                           ----- -----  ----- -----
  +--> fast_SleepQueue_aheadW1/DATA
  +--> TVMode_1/TV_Mode
  +--> TVMode_2/TV_Mode
  +--> TVMode_3/TV_Mode
  +--> time_synchronization/TV_Mode

TVMode_1/TV_Mode                            ----- -----  ----- -----
  +--> Time_comparison/TV_Mode
  +--> shifen_dh/OLED
  +--> IU_Battery_Icon_S/OLED
L251 LINKER/LOCATER V4.66.93.0                                                        04/24/2024  23:59:23  PAGE 15


  +--> Week_conversion/TV_Mode
  +--> ZF_8X16/OLED
  +--> yue_ri/OLED

Time_comparison/TV_Mode                     ----- -----  ----- -----

shifen_dh/OLED                              ----- -----  03ABH 03ACH
  +--> shifen_dh_z/OLED

shifen_dh_z/OLED                            ----- -----  03ADH 03B1H
  +--> OLED_Set_Pos/OLED
  +--> SPI_DMA_switch/OLED
  +--> SPI_DMA_TX/OLED

IU_Battery_Icon_S/OLED                      ----- -----  03ABH 03ABH
  +--> OLED_Set_Pos/OLED
  +--> OLED_WrDat/OLED
  +--> IU_Battery_Icon_S_1/OLED
  +--> ZF_8X8/OLED

IU_Battery_Icon_S_1/OLED                    ----- -----  ----- -----
  +--> ZF_8X8/OLED

Week_conversion/TV_Mode                     ----- -----  ----- -----

ZF_8X16/OLED                                ----- -----  03ABH 03AFH
  +--> OLED_Set_Pos/OLED
  +--> SPI_DMA_switch/OLED
  +--> SPI_DMA_TX/OLED

yue_ri/OLED                                 20H.0 20H.0  ----- -----
  +--> ZF_8X16/OLED

TVMode_2/TV_Mode                            ----- -----  ----- -----
  +--> Time_comparison/TV_Mode
  +--> IU_Battery_Icon_S/OLED
  +--> ZF_8X16/OLED
  +--> shifen_dh/OLED
  +--> UI_humidity/TV_Mode
  +--> UI_pressure/TV_Mode
  +--> time_synchronization/TV_Mode

UI_humidity/TV_Mode                         ----- -----  ----- -----
  +--> ZF_8X16/OLED

UI_pressure/TV_Mode                         ----- -----  ----- -----
  +--> ULIDIV/STC_MDU32
  +--> ZF_8X8/OLED

time_synchronization/TV_Mode                ----- -----  ----- -----

TVMode_3/TV_Mode                            ----- -----  ----- -----
  +--> Time_comparison/TV_Mode
  +--> ZF_8X16/OLED
  +--> IU_Battery_cheek_renovate/OLED
  +--> time_synchronization/TV_Mode

IU_Battery_cheek_renovate/OLED              ----- -----  ----- -----
  +--> ULIDIV/STC_MDU32
  +--> IU_Battery_cheek_renovate_count/OLED
  +--> IU_16x8_Fill/OLED
  +--> OLED_Set_Pos/OLED
  +--> ZF_8X8/OLED
  +--> ZF_8X16/OLED
  +--> OLED_WrDat/OLED
L251 LINKER/LOCATER V4.66.93.0                                                        04/24/2024  23:59:23  PAGE 16


  +--> IU_Battery_Icon_S_1/OLED

IU_Battery_cheek_renovate_count/OLED        ----- -----  ----- -----
  +--> IU_16x8_Fill/OLED

IU_16x8_Fill/OLED                           ----- -----  ----- -----
  +--> OLED_Set_Pos/OLED
  +--> OLED_WrDat/OLED

UI_CompassMenu_time/CompassMenu             ----- -----  ----- -----

key_thread1_new/logic                       ----- -----  ----- -----
  +--> SleepQueue_aheadW1/DATA
  +--> Buzzer_Open/IO

Buzzer_Open/IO                              ----- -----  ----- -----

Sleep_Thread/time                           ----- -----  ----- -----
  +--> RFF/DATA
  +--> Sleep_delay_Time/time

UI_switch/UI                                ----- -----  ----- -----
  +--> Magnetometer_Close/BMC050
  +--> OLED_Fill/OLED
  +--> IU_Main_Menu_Switch/Main_Menu
  +--> UI_main/Main_Menu
  +--> UI_SecondaryMenu/SecondaryMenu
  +--> GET_SCdat3/DATA
  +--> UI_ThreeMenu/ThreeMenu
  +--> TVMode_int/TV_Mode
  +--> TVMode2_int/TV_Mode
  +--> TVMode3_int/TV_Mode
  +--> UI_CompassMenu_int/CompassMenu

Magnetometer_Close/BMC050                   ----- -----  ----- -----
  +--> IIC_W2bit/IIC

IU_Main_Menu_Switch/Main_Menu               ----- -----  ----- -----

UI_ThreeMenu/ThreeMenu                      ----- -----  ----- -----
  +--> OLED_Region_Fill/OLED
  +--> GET_SCdat3/DATA
  +--> data_GetMax/DATA
  +--> OLED_Progress_Bar/OLED
  +--> TVR/OLED
  +--> UI_S_F/SecondaryMenu
  +--> OLED_16_16V/OLED

OLED_Region_Fill/OLED                       ----- -----  ----- -----
  +--> OLED_Set_Pos/OLED
  +--> OLED_WrDat/OLED

TVMode_int/TV_Mode                          ----- -----  ----- -----
  +--> IU_Battery_Icon_S/OLED
  +--> yue_ri/OLED
  +--> ZF_8X16/OLED
  +--> Week_conversion/TV_Mode
  +--> shifen/OLED
  +--> shifen_dh/OLED
  +--> time_synchronization/TV_Mode

shifen/OLED                                 ----- -----  03ABH 03ABH
  +--> OLED_Set_Pos/OLED
  +--> OLED_WrDat/OLED

L251 LINKER/LOCATER V4.66.93.0                                                        04/24/2024  23:59:23  PAGE 17


TVMode2_int/TV_Mode                         ----- -----  ----- -----
  +--> IU_Battery_Icon_S/OLED
  +--> time_show_s/TV_Mode
  +--> shifen_dh/OLED
  +--> UI_humidity/TV_Mode
  +--> ZF_8X16/OLED
  +--> ZF_8X8/OLED
  +--> UI_pressure/TV_Mode
  +--> time_synchronization/TV_Mode

time_show_s/TV_Mode                         ----- -----  ----- -----
  +--> ZF_8X16/OLED

TVMode3_int/TV_Mode                         ----- -----  ----- -----
  +--> time_show_s/TV_Mode
  +--> IU_Battery_cheek/OLED
  +--> IU_Battery_cheek_renovate/OLED
  +--> time_synchronization/TV_Mode

IU_Battery_cheek/OLED                       ----- -----  ----- -----
  +--> ZF_8X8/OLED
  +--> OLED_Set_Pos/OLED
  +--> OLED_WrDat/OLED
  +--> ZF_8X16/OLED

UI_CompassMenu_int/CompassMenu              ----- -----  ----- -----
  +--> Magnetometer_OPEN/BMC050
  +--> OLED_Set_Pos/OLED
  +--> OLED_WrDat/OLED
  +--> OLED_16X16/OLED
  +--> SleepQueue_aheadW1/DATA

Magnetometer_OPEN/BMC050                    ----- -----  ----- -----
  +--> IIC_W2bit/IIC
  +--> Sleep_delay_Time/time

SHT41_falg_0004/SHT41                       ----- -----  03ABH 03AEH
  +--> Start/IIC
  +--> SendData/IIC
  +--> RecvACK/IIC
  +--> SHT41_R_16bit/SHT41
  +--> Stop/IIC
  +--> LIMUL/STC_MDU32
  +--> ULIDIV/STC_MDU32

SHT41_R_16bit/SHT41                         ----- -----  ----- -----
  +--> RecvData/IIC
  +--> SendACK/IIC
  +--> SendNAK/IIC

SPL06_PR_R_flag0008/SPL06                   ----- -----  ----- -----
  +--> SPL06_R2/SPL06
  +--> IIC_W2bit/IIC
  +--> SleepQueue_aheadW1/DATA

SPL06_R2/SPL06                              ----- -----  03ABH 03AEH
  +--> Start/IIC
  +--> SendData/IIC
  +--> RecvACK/IIC
  +--> RecvData/IIC
  +--> SendACK/IIC
  +--> SendNAK/IIC
  +--> Stop/IIC

SPL06_PR_P_flag0010/SPL06                   ----- -----  ----- -----
L251 LINKER/LOCATER V4.66.93.0                                                        04/24/2024  23:59:23  PAGE 18


  +--> SPL06_R2/SPL06
  +--> SPL06_Math_P/SPL06

SPL06_Math_P/SPL06                          ----- -----  ----- -----
  +--> ULDIV/STC_MDU32
  +--> LIMUL/STC_MDU32
  +--> LMUL/STC_MDU32

LMUL/STC_MDU32                              ----- -----  ----- -----

BH1745R_flag0002/BH1745                     ----- -----  ----- -----
  +--> BH1745_Rdat/BH1745
  +--> IIC_W2bit/IIC

BH1745_Rdat/BH1745                          ----- -----  ----- -----
  +--> Start/IIC
  +--> SendData/IIC
  +--> RecvACK/IIC
  +--> RecvData/IIC
  +--> SendACK/IIC
  +--> SendNAK/IIC

Buzzer_falg_0020/IO                         ----- -----  ----- -----
  +--> Buzzer_Close/IO

ADC_falg_0040/ADC                           ----- -----  ----- -----
  +--> Get_VB/ADC
  +--> VB_SET/ADC
  +--> Get_VB_Average/ADC
  +--> Get_ADC12bitResult/ADC
  +--> ULDIV/STC_MDU32
  +--> LIMUL/STC_MDU32
  +--> ULIDIV/STC_MDU32
  +--> Battery_percentage/ADC

Get_VB_Average/ADC                          ----- -----  ----- -----

Battery_percentage/ADC                      ----- -----  ----- -----
  +--> LIMUL/STC_MDU32
  +--> ULIDIV/STC_MDU32

Magnetometer_falg_0080/BMC050               ----- -----  ----- -----
  +--> Magnetometer_measure/BMC050
  +--> UI_CompassMenu/CompassMenu
  +--> SleepQueue_aheadW1/DATA

Magnetometer_measure/BMC050                 ----- -----  ----- -----
  +--> IIC_W2bit/IIC
  +--> Start/IIC
  +--> SendData/IIC
  +--> RecvACK/IIC
  +--> Magnetometer_measure_1/BMC050
  +--> convert_1/BMC050
  +--> Get_Magnetism_dat/BMC050
  +--> Angle_calculation/BMC050

Magnetometer_measure_1/BMC050               ----- -----  03ABH 03ABH
  +--> RecvData/IIC
  +--> SendACK/IIC
  +--> SendNAK/IIC
  +--> Stop/IIC

convert_1/BMC050                            ----- -----  ----- -----

Get_Magnetism_dat/BMC050                    ----- -----  ----- -----
L251 LINKER/LOCATER V4.66.93.0                                                        04/24/2024  23:59:23  PAGE 19



Angle_calculation/BMC050                    ----- -----  ----- -----
  +--> atan/BMC050

atan/BMC050                                 ----- -----  03ABH 03B2H
  +--> LMUL/STC_MDU32
  +--> LIMUL/STC_MDU32

UI_CompassMenu/CompassMenu                  ----- -----  ----- -----
  +--> UI_Compass_Animation/CompassMenu
  +--> debug_8x8/OLED

UI_Compass_Animation/CompassMenu            ----- -----  03ABH 03ACH
  +--> UI_Compass_Animation_1/CompassMenu

UI_Compass_Animation_1/CompassMenu          20H.0 20H.0  ----- -----
  +--> OLED_Set_Pos/OLED
  +--> OLED_WrDat/OLED
  +--> OLED_16X16_MOV/OLED
  +--> OLED_8X8X3_MOV/OLED

OLED_16X16_MOV/OLED                         ----- -----  03ADH 03AFH
  +--> OLED_Set_Pos/OLED
  +--> OLED_WrDat/OLED

OLED_8X8X3_MOV/OLED                         ----- -----  03ADH 03ADH
  +--> OLED_Set_Pos/OLED
  +--> OLED_WrDat/OLED

debug_8x8/OLED                              ----- -----  03ABH 03ACH
  +--> OLED_Set_Pos/OLED
  +--> ZF_8X8/OLED

*** NEW ROOT ******************************

?C_C51STARTUP?2                             ----- -----  ----- -----



PUBLIC SYMBOLS OF MODULE:  ..\firmware\STC32F_LowPowerClock (ADC)


      VALUE       CLASS    TYPE      PUBLIC SYMBOL NAME
      =================================================
      000000FFH   NUMBER   ---       ?C?CODESEG
      00FF8069H   CODE     ---       ?C?INITEDATA
      00FF9F2AH   HCONST   WORD      ?C?INITEDATA_END
      00FF8092H   CODE     ---       ?C?INITHDATA
      00FF9AFAH   HCONST   WORD      ?C?INITHDATA_END
      00FF92D6H   CODE     ---       ?C?LIMUL
      00FF012EH   CODE     ---       ?C?LMUL
      00FF8C27H   CODE     ---       ?C?SIDIV
*DEL*:00000000H   CODE     ---       ?C?SLDIV
      00FF0000H   CODE     ---       ?C?STARTUP
      00FF0136H   CODE     ---       ?C?ULDIV
      00FF92DCH   CODE     ---       ?C?ULIDIV
      00000001H   NUMBER   ---       ?C?XDATASEG
      00FF0000H   CODE     ---       ?C_STARTUP
      00000020H.0 BIT      BIT       ?OLED_16_16V2?BIT
      00000020H.1 BIT      BIT       ?OLED_16_16V?BIT
      00000020H.0 BIT      BIT       ?OLED_16_16Vabc?BIT
      000003ABH   EDATA    BYTE      ?OLED_16_16Vabc?BYTE
      00000020H.0 BIT      BIT       ?UI_Compass_Animation_1?BIT
      00000020H.0 BIT      BIT       ?yue_ri?BIT
*DEL*:00000000H   CODE     ---       Abs_Difference_16
L251 LINKER/LOCATER V4.66.93.0                                                        04/24/2024  23:59:23  PAGE 20


*SFR* 000000BCH   DATA     BYTE      ADC_CONTR
      00FF7270H   CODE     ---       ADC_falg_0040
*SFR* 000000BCH.5 DATA     BIT       ADC_FLAG
      00FF7F6FH   CODE     ---       ADC_Get_V1
      00FF8D15H   CODE     ---       ADC_init
*SFR* 000000BDH   DATA     BYTE      ADC_RES
*SFR* 000000BEH   DATA     BYTE      ADC_RESL
      00000018H   EDATA    DWORD     adc_rtf
*SFR* 000000BCH.6 DATA     BIT       ADC_START
*SFR* 000000DEH   DATA     BYTE      ADCCFG
      00FF6F4BH   CODE     ---       Add_key
      00FF6A3BH   CODE     ---       Alarm_conversion_16TO32
      00FF607CH   CODE     ---       Alarm_conversion_32TO16
      00000163H   EDATA    ---       AlarmClock
      00FF0CD0H   CODE     ---       AlarmClock_set
      00FF8F3CH   CODE     ---       angle
      00FF7B6AH   CODE     ---       Angle_calculation
      00FF8EDFH   CODE     ---       array_fill
      00FF8768H   CODE     ---       Array_Initialization_
      00FF8FB3H   CODE     ---       Array_Initialization_16
      00FF9156H   CODE     ---       Array_Initialization_8
      00FF6B25H   CODE     ---       atan
*SFR* 000000EFH   DATA     BYTE      AUXINTIF
*SFR* 0000008EH   DATA     BYTE      AUXR
*SFR* 00000097H   DATA     BYTE      AUXR2
      00FF92AEH   CODE     ---       Battery_ON_OFF
      00FF92B7H   CODE     ---       Battery_ON_ON
      00FF4BD7H   CODE     ---       Battery_percentage
      00FF8FEBH   CODE     ---       BCD_to_X10
      00FF8D6DH   CODE     ---       BH1745_Init
      00FF6293H   CODE     ---       BH1745_Rdat
*DEL*:00000000H   CODE     ---       BH1745_RdatX4
      00FF8DC0H   CODE     ---       BH1745R_flag0002
      00FF0350H   CODE     ---       Brightness_setting
      00FF92C8H   CODE     ---       Buzzer_Close
      00FF906AH   CODE     ---       Buzzer_falg_0020
      00FF92CFH   CODE     ---       Buzzer_Open
*DEL*:00000000H   CODE     ---       Buzzer_task
      00000008H   EDATA    ---       BV
*SFR* 000000F1H   DATA     BYTE      CANICR
*SFR* 000000EAH   DATA     BYTE      CKCON
      00FF8CE7H   CODE     ---       Clock_INT
*SFR* 000000E6H   DATA     BYTE      CMPCR1
*SFR* 000000E7H   DATA     BYTE      CMPCR2
      000003A0H   EDATA    ---       Compass_data
      0000039BH   EDATA    ---       Compass_Scale
      00FF8F1EH   CODE     ---       convert_1
*SFR* 000000A0H.2 DATA     BIT       CS
      00010120H   XDATA    ---       dat00
      00FF7EF9H   CODE     ---       dat00_Change
      00010000H   XDATA    ---       dat00_flag
      000105B5H   XDATA    ---       dat00_low
      00010375H   XDATA    ---       dat00_max
      0000037DH   EDATA    DWORD     dat1
      00000381H   EDATA    DWORD     dat2
      00000385H   EDATA    DWORD     dat3
      00000389H   EDATA    DWORD     dat4
      0000038DH   EDATA    DWORD     dat5
      00000391H   EDATA    DWORD     dat6
      00000395H   EDATA    DWORD     dat7
      00FF7735H   CODE     ---       data00_Change
      00FF6C01H   CODE     ---       data_GetMax
      00FF80C6H   CODE     ---       data_GetMin
*SFR* 000000A0H.1 DATA     BIT       DC
      00FF658BH   CODE     ---       debug_8x8
L251 LINKER/LOCATER V4.66.93.0                                                        04/24/2024  23:59:23  PAGE 21


*DEL*:00000000H   CODE     ---       Delay
      00FF0006H   CODE     ---       Delay10us
*DEL*:00000000H   CODE     ---       Delay50us
      00FF9140H   CODE     ---       delay_ms
*DEL*:00000000H   CODE     ---       DMA_Config
      00010AF5H   XDATA    ---       DMABuffer
      00010B55H   XDATA    ---       DMABufferRX
*SFR* 000000EDH   DATA     BYTE      DMAIR
      00FF01E0H   CODE     ---       DSW_1
*SFR* 000000A8H.7 DATA     BIT       EA
*SFR* 000000BAH.7 DATA     BIT       EAXFR
      00FF1150H   CODE     ---       Environment
      00FF618AH   CODE     ---       ESC_key
*SFR* 000000A8H.1 DATA     BIT       ET0
*SFR* 000000A8H.3 DATA     BIT       ET1
      00FF2AB8H   CODE     ---       F16x16_position
      00FF1998H   CODE     ---       F16x16cd
      00FF04D0H   CODE     ---       F32x32
      00FF21D8H   CODE     ---       F8x16
      00FF0280H   CODE     ---       F8x16_unit
      00FF1618H   CODE     ---       F8x16d
      00FF14D0H   CODE     ---       F8x8
      00FF79AAH   CODE     ---       fast_SleepQueue_aheadW1
*DEL*:00000000H   CODE     ---       fast_SleepQueue_aheadW2
      00FF8CB9H   CODE     ---       flag_handle
      00FF8ABFH   CODE     ---       Get_ADC12bitResult
      00FF91D0H   CODE     ---       GET_GBdat
      00FF848CH   CODE     ---       Get_Magnetism_dat
      00FF923EH   CODE     ---       GET_SC
      00FF91E3H   CODE     ---       GET_SCdat
      00FF922DH   CODE     ---       GET_SCdat3
      00FF7AD6H   CODE     ---       GET_time_c
      00FF819FH   CODE     ---       Get_VB
      00FF897DH   CODE     ---       Get_VB_Average
      00FF91F6H   CODE     ---       GET_WEEK
      00000376H   EDATA    WORD      gg
*DEL*:00000000H   CODE     ---       ggg
*SFR* 000000C7H   DATA     BYTE      IAP_CONTR
*SFR* 00000087H.0 DATA     BIT       IDL
*SFR* 000000A8H   DATA     BYTE      IE
*SFR* 000000AFH   DATA     BYTE      IE2
      00FF9038H   CODE     ---       IIC_int
      00FF89B3H   CODE     ---       IIC_R1bit
*DEL*:00000000H   CODE     ---       IIC_ResponseText
*DEL*:00000000H   CODE     ---       IIC_ResponseText_1bit
      00FF8E0CH   CODE     ---       IIC_W1bit
      00FF8A55H   CODE     ---       IIC_W2bit
      00FF8578H   CODE     ---       INS5699_timeR
*DEL*:00000000H   CODE     ---       INS5699_timer_clean
      00FF869AH   CODE     ---       INS5699_timeW
      00FF006AH   CODE     ---       INT0_Isr
      00FF0132H   CODE     ---       INT1_Isr
*SFR* 0000008FH   DATA     BYTE      INTCLKO
      00000378H   EDATA    DWORD     Interrupt_flag
      00FF7912H   CODE     ---       IO_Init
*SFR* 000000B8H   DATA     BYTE      IP
*SFR* 000000B5H   DATA     BYTE      IP2
*SFR* 000000B6H   DATA     BYTE      IP2H
*SFR* 000000DFH   DATA     BYTE      IP3
*SFR* 000000EEH   DATA     BYTE      IP3H
*SFR* 000000B7H   DATA     BYTE      IPH
*SFR* 0000009DH   DATA     BYTE      IRCBAND
      00FF90CCH   CODE     ---       IU_16x8_Fill
      00FF7019H   CODE     ---       IU_Battery_cheek
      00FF45C6H   CODE     ---       IU_Battery_cheek_renovate
L251 LINKER/LOCATER V4.66.93.0                                                        04/24/2024  23:59:23  PAGE 22


      00FF860DH   CODE     ---       IU_Battery_cheek_renovate_count
      00FF7329H   CODE     ---       IU_Battery_Icon_S
      00FF7BF4H   CODE     ---       IU_Battery_Icon_S_1
      00FF4DC0H   CODE     ---       IU_Main_Menu
      00FF8D42H   CODE     ---       IU_Main_Menu_Switch
      00FF3BD8H   CODE     ---       IU_Secondary
      00FF8E31H   CODE     ---       IU_Thread
      00FF006EH   CODE     ---       IU_Three
      00FF4139H   CODE     ---       IU_TVMode
      00010B75H   XDATA    ---       JCQ06_00
      0000034BH   EDATA    WORD      JD_low
      00000373H   EDATA    BYTE      JD_low_num
*DEL*:00000000H   CODE     ---       Judging_Range
      00FF8826H   CODE     ---       jump_MainMenu
      00FF8269H   CODE     ---       jump_SecondaryMenu
      000003B9H   EDATA    WORD      jy
      00FF8204H   CODE     ---       key_int
*DEL*:00000000H   CODE     ---       key_Thread
      00FF852AH   CODE     ---       key_thread1_new
      00FF1598H   CODE     ---       KG_G
      00FF15D8H   CODE     ---       KG_K
      00FF4F95H   CODE     ---       KZ_isr
      00FF912AH   CODE     ---       LCD_Writ_Bus
*SFR* 000000F9H   DATA     BYTE      LINICR
      000003BDH   EDATA    WORD      Low_wendu
      00000341H   EDATA    ---       Magnetism_JD
      0000034DH   EDATA    ---       Magnetism_JD1
      00000357H   EDATA    ---       Magnetism_X
      00000325H   EDATA    ---       Magnetism_X1
      00000365H   EDATA    ---       Magnetism_Y
      00000333H   EDATA    ---       Magnetism_Y1
      00FF929AH   CODE     ---       Magnetometer_Close
      00FF8BC3H   CODE     ---       Magnetometer_falg_0080
      00FF8C59H   CODE     ---       Magnetometer_initi
      00FF5783H   CODE     ---       Magnetometer_measure
      00FF87ABH   CODE     ---       Magnetometer_measure_1
      00FF8F96H   CODE     ---       Magnetometer_OPEN
      00FF52D9H   CODE     ---       main
*DEL*:00000000H   CODE     ---       nian
      00FF8946H   CODE     ---       numlongGet
      00FF7495H   CODE     ---       OLED_16_16V
      00FF8A1FH   CODE     ---       OLED_16_16V2
*DEL*:00000000H   CODE     ---       OLED_16_16V2a
      00FF3ED6H   CODE     ---       OLED_16_16Vabc
      00FF7E7DH   CODE     ---       OLED_16X16
      00FF77D9H   CODE     ---       OLED_16X16_MOV
      00FF6CD7H   CODE     ---       OLED_32X32
      00FF47E2H   CODE     ---       OLED_8X8X3_MOV
      00FF7D7EH   CODE     ---       OLED_AlarmClock_ZH
      00FF5D0FH   CODE     ---       OLED_AlarmClock_ZQ
*DEL*:00000000H   CODE     ---       OLED_ED
      00FF8BF5H   CODE     ---       OLED_Fill
      00FF916BH   CODE     ---       OLED_FZQP
*DEL*:00000000H   CODE     ---       OLED_GD
      00FF73E2H   CODE     ---       OLED_Init
      00FF8D97H   CODE     ---       OLED_Mean2_fill
      00FF85C3H   CODE     ---       OLED_Mean2_fill2
      00FF7FE3H   CODE     ---       OLED_Mean2_fill_num
      00FF6494H   CODE     ---       OLED_Mean2_fill_num2
      00FF8B27H   CODE     ---       OLED_Mean2_fill_num_10X
      00FF90B4H   CODE     ---       OLED_POW
*DEL*:00000000H   CODE     ---       OLED_POW_LOW
      00FF71ADH   CODE     ---       OLED_Progress_Bar
      00FF82CBH   CODE     ---       OLED_Region_Fill
      00FF8E9DH   CODE     ---       OLED_Set_Pos
L251 LINKER/LOCATER V4.66.93.0                                                        04/24/2024  23:59:23  PAGE 23


      00FF9209H   CODE     ---       OLED_WrCmd
      00FF927FH   CODE     ---       OLED_WrDat
      0000001FH   EDATA    BYTE      p
*SFR* 00000080H   DATA     BYTE      P0
*SFR* 00000080H.0 DATA     BIT       P00
*SFR* 00000080H.5 DATA     BIT       P05
*SFR* 00000080H.6 DATA     BIT       P06
*SFR* 00000094H   DATA     BYTE      P0M0
*SFR* 00000093H   DATA     BYTE      P0M1
*SFR* 00000090H   DATA     BYTE      P1
*SFR* 00000092H   DATA     BYTE      P1M0
*SFR* 00000091H   DATA     BYTE      P1M1
*SFR* 000000A0H   DATA     BYTE      P2
*SFR* 000000A0H.7 DATA     BIT       P27
*SFR* 00000096H   DATA     BYTE      P2M0
*SFR* 00000095H   DATA     BYTE      P2M1
*SFR* 000000B0H   DATA     BYTE      P3
*SFR* 000000B2H   DATA     BYTE      P3M0
*SFR* 000000B1H   DATA     BYTE      P3M1
*SFR* 000000C0H   DATA     BYTE      P4
*SFR* 000000C0H.5 DATA     BIT       P45
*SFR* 000000C0H.6 DATA     BIT       P46
*SFR* 000000B4H   DATA     BYTE      P4M0
*SFR* 000000B3H   DATA     BYTE      P4M1
*SFR* 000000C8H   DATA     BYTE      P5
*SFR* 000000C8H.0 DATA     BIT       P50
*SFR* 000000C8H.2 DATA     BIT       P52
*SFR* 000000C8H.3 DATA     BIT       P53
*SFR* 000000FFH.4 DATA     BIT       P54RST
*SFR* 000000CAH   DATA     BYTE      P5M0
*SFR* 000000C9H   DATA     BYTE      P5M1
*SFR* 000000E8H   DATA     BYTE      P6
*SFR* 000000CCH   DATA     BYTE      P6M0
*SFR* 000000CBH   DATA     BYTE      P6M1
*SFR* 000000F8H   DATA     BYTE      P7
*SFR* 000000E2H   DATA     BYTE      P7M0
*SFR* 000000E1H   DATA     BYTE      P7M1
*SFR* 000000A2H   DATA     BYTE      P_SW1
*SFR* 000000BAH   DATA     BYTE      P_SW2
*SFR* 000000BBH   DATA     BYTE      P_SW3
*SFR* 00000087H   DATA     BYTE      PCON
*SFR* 00000087H.1 DATA     BIT       PD
      00FF27B8H   CODE     ---       Power_Options
      0000001CH   EDATA    BYTE      pp
*SFR* 000000D0H   DATA     BYTE      PSW
      00FF926FH   CODE     ---       RecvACK
      00FF8FCFH   CODE     ---       RecvData
*SFR* 00000098H.4 DATA     BIT       REN
      00FF92A4H   CODE     ---       RESET54
      00FF86E0H   CODE     ---       RFF
*SFR* 000000A0H.0 DATA     BIT       RST
*SFR* 000000FFH   DATA     BYTE      RSTCFG
*SFR* 0000009AH   DATA     BYTE      S2CON
*SFR* 000000ACH   DATA     BYTE      S3CON
*SFR* 000000FDH   DATA     BYTE      S4CON
*SFR* 000000A0H.5 DATA     BIT       SCK
*SFR* 00000098H   DATA     BYTE      SCON
      00FF909CH   CODE     ---       SendACK
      00FF90FCH   CODE     ---       SendData
      00FF9051H   CODE     ---       SendNAK
      00FF49EBH   CODE     ---       SET_key
      00FF8329H   CODE     ---       SET_time_c
      00FF9194H   CODE     ---       SET_WEEK
      00FF8134H   CODE     ---       shifen
      00FF889CH   CODE     ---       shifen_dh
L251 LINKER/LOCATER V4.66.93.0                                                        04/24/2024  23:59:23  PAGE 24


      00FF6E7BH   CODE     ---       shifen_dh_z
      00FF7C7AH   CODE     ---       SHT41_falg_0004
      00FF92C0H   CODE     ---       SHT41_Init
      00FF8B5BH   CODE     ---       SHT41_R_16bit
      00FF91A8H   CODE     ---       SHT41_R_High
*DEL*:00000000H   CODE     ---       SHT41_R_High1
*SFR* 000000A0H.3 DATA     BIT       SI
      00000374H   EDATA    WORD      sleep_dat
      00FF91BCH   CODE     ---       Sleep_delay_HalfMs
      00FF88D5H   CODE     ---       Sleep_delay_Time
      000001A3H   EDATA    ---       Sleep_Queue
      00000263H   EDATA    WORD      Sleep_Queue_count
      00000161H   EDATA    WORD      Sleep_Queue_count_target
      00000265H   EDATA    ---       Sleep_Queue_task
      00FF8F78H   CODE     ---       Sleep_Thread
      00FF6860H   CODE     ---       SleepMode_OFF
      00FF5F66H   CODE     ---       SleepMode_ON
      00FF5E46H   CODE     ---       SleepQueue_aheadW1
      00FF901FH   CODE     ---       SleepQueue_behindW
      00FF8725H   CODE     ---       SleepQueue_MoveLeft
*DEL*:00000000H   CODE     ---       SleepQueue_MoveLeft2
      00FF2B58H   CODE     ---       Sound_setting
*SFR* 000000CEH   DATA     BYTE      SPCTL
*SFR* 000000CFH   DATA     BYTE      SPDAT
      00FF9083H   CODE     ---       SPI_DMA
      0000001DH   EDATA    BYTE      SPI_DMA_buy
      00FF0016H   CODE     ---       SPI_DMA_Config
      00FF90E4H   CODE     ---       SPI_DMA_delay
      00FF8E7AH   CODE     ---       SPI_DMA_switch
      00FF8862H   CODE     ---       SPI_DMA_TX
      0000001EH   EDATA    BYTE      SPI_DMA_USE
      000107F5H   XDATA    ---       SPI_DmaRxBuffer
      000108F5H   XDATA    ---       SPI_DmaTxBuffer
      000109F5H   XDATA    ---       SPI_DmaTxBuffer2
      00FF89E9H   CODE     ---       SPI_init
*DEL*:00000000H   CODE     ---       SPL06_C0R
      00FF890EH   CODE     ---       SPL06_Init
      00FF667FH   CODE     ---       SPL06_Math_P
*DEL*:00000000H   CODE     ---       SPL06_PR
      00FF8B8FH   CODE     ---       SPL06_PR_P_flag0010
      00FF9113H   CODE     ---       SPL06_PR_R
      00FF8A8AH   CODE     ---       SPL06_PR_R_flag0008
      00FF7878H   CODE     ---       SPL06_R2
*SFR* 000000CDH   DATA     BYTE      SPSTAT
      00FF924FH   CODE     ---       Start
      00000399H   EDATA    WORD      start_X_low
      00FF925FH   CODE     ---       Stop
      00FF32D8H   CODE     ---       System_Information
      00FF2CD8H   CODE     ---       System_Information_data
*SFR* 000000DDH   DATA     BYTE      T4T3M
*SFR* 00000088H   DATA     BYTE      TCON
      000003AAH   EDATA    BYTE      test1
      00FF8EFFH   CODE     ---       test_10
*SFR* 00000088H.5 DATA     BIT       TF0
*SFR* 0000008CH   DATA     BYTE      TH0
*SFR* 0000008DH   DATA     BYTE      TH1
      00FF6398H   CODE     ---       Time_comparison
      0001036EH   XDATA    ---       Time_int
      00FF5144H   CODE     ---       Time_Interruption_1S
      00010367H   XDATA    ---       Time_Low
      00010360H   XDATA    ---       Time_New
      00FF23B8H   CODE     ---       time_set
      00FF7DFEH   CODE     ---       time_show_s
      00FF8E56H   CODE     ---       time_synchronization
*DEL*:00000000H   CODE     ---       Timer0Init
L251 LINKER/LOCATER V4.66.93.0                                                        04/24/2024  23:59:23  PAGE 25


*SFR* 0000008AH   DATA     BYTE      TL0
*SFR* 0000008BH   DATA     BYTE      TL1
*SFR* 00000089H   DATA     BYTE      TMOD
*SFR* 00000088H.4 DATA     BIT       TR0
*SFR* 00000088H.6 DATA     BIT       TR1
      00FF694FH   CODE     ---       TVMode2_int
      00FF928EH   CODE     ---       TVMode3_int
      00FF4385H   CODE     ---       TVMode_1
      00FF38D8H   CODE     ---       TVMode_16
      00FF5A6FH   CODE     ---       TVMode_2
      00FF753FH   CODE     ---       TVMode_3
      00FF5469H   CODE     ---       TVMode_int
      00FF75E8H   CODE     ---       TVR
*DEL*:00000000H   CODE     ---       UART1_bit
*DEL*:00000000H   CODE     ---       UART1_config
*DEL*:00000000H   CODE     ---       UART1_DMA
*DEL*:00000000H   CODE     ---       UART1_TX
*DEL*:00000000H   CODE     ---       UART1_TX_task
*DEL*:00000000H   CODE     ---       UART1_TX_task2
      00FF768FH   CODE     ---       UI_Compass_Animation
      00FF6DAAH   CODE     ---       UI_Compass_Animation_1
      00FF921CH   CODE     ---       UI_CompassMenu
      00FF8AF3H   CODE     ---       UI_CompassMenu_int
      00FF0012H   CODE     ---       UI_CompassMenu_time
      000000E1H   EDATA    ---       UI_dat
      00FF843AH   CODE     ---       UI_humidity
      00FF5BC5H   CODE     ---       UI_main
      00FF7A40H   CODE     ---       UI_pressure
      00FF8F5AH   CODE     ---       UI_S_F
      00FF8EBEH   CODE     ---       UI_S_F2
      00FF55F8H   CODE     ---       UI_SecondaryMenu
      00FF8C8AH   CODE     ---       UI_SecondaryMenu_G
      00FF590CH   CODE     ---       UI_SeMenu_Cursor_num
      00FF8DE6H   CODE     ---       UI_SeMenu_Cursor_num_2
      00FF6771H   CODE     ---       UI_switch
      00FF8385H   CODE     ---       UI_ThreeMenu
      00000021H   EDATA    ---       UI_TX
      00FF7CFDH   CODE     ---       UIData_fill
*SFR* 000000DCH   DATA     BYTE      USBCLK
*SFR* 000000F4H   DATA     BYTE      USBCON
      0000037CH   EDATA    BYTE      uu
      000003BFH   EDATA    BYTE      uuy
      00FF9180H   CODE     ---       VB_SET
      00FF8654H   CODE     ---       Wait
*SFR* 000000C1H   DATA     BYTE      WDT_CONTR
      00FF84DBH   CODE     ---       Week_conversion
*SFR* 000000ABH   DATA     BYTE      WKTCH
*SFR* 000000AAH   DATA     BYTE      WKTCL
*SFR* 000000E9H   DATA     BYTE      WTST
      00FF9006H   CODE     ---       X10_to_BCD
      000003BBH   EDATA    WORD      xxx
      00FF87E9H   CODE     ---       yue_ri
      000003C0H   EDATA    BYTE      yya
      00FF70E6H   CODE     ---       ZF_8X16
      00FF83E1H   CODE     ---       ZF_8X8



SYMBOL TABLE OF MODULE:  ..\firmware\STC32F_LowPowerClock (ADC)

      VALUE       REP       CLASS    TYPE      SYMBOL NAME
      ====================================================
      ---         MODULE    ---      ---       ADC
      00FF819FH   PUBLIC    CODE     ---       Get_VB
      00FF7F6FH   PUBLIC    CODE     ---       ADC_Get_V1
L251 LINKER/LOCATER V4.66.93.0                                                        04/24/2024  23:59:23  PAGE 26


      00FF897DH   PUBLIC    CODE     ---       Get_VB_Average
      00FF8D15H   PUBLIC    CODE     ---       ADC_init
      00FF9180H   PUBLIC    CODE     ---       VB_SET
      00FF4BD7H   PUBLIC    CODE     ---       Battery_percentage
      00FF7270H   PUBLIC    CODE     ---       ADC_falg_0040
      00FF8ABFH   PUBLIC    CODE     ---       Get_ADC12bitResult
      00000008H   PUBLIC    EDATA    ---       BV
      00000018H   PUBLIC    EDATA    DWORD     adc_rtf
      0000001CH   PUBLIC    EDATA    BYTE      pp
      000000D0H   SFRSYM    DATA     BYTE      PSW
      0000009DH   SFRSYM    DATA     BYTE      IRCBAND
      00000097H   SFRSYM    DATA     BYTE      AUXR2
      000000EFH   SFRSYM    DATA     BYTE      AUXINTIF
      000000FDH   SFRSYM    DATA     BYTE      S4CON
      000000ACH   SFRSYM    DATA     BYTE      S3CON
      0000009AH   SFRSYM    DATA     BYTE      S2CON
      000000B7H   SFRSYM    DATA     BYTE      IPH
      000000CDH   SFRSYM    DATA     BYTE      SPSTAT
      000000BEH   SFRSYM    DATA     BYTE      ADC_RESL
      000000DDH   SFRSYM    DATA     BYTE      T4T3M
      000000C1H   SFRSYM    DATA     BYTE      WDT_CONTR
      000000DFH   SFRSYM    DATA     BYTE      IP3
      000000F4H   SFRSYM    DATA     BYTE      USBCON
      000000B5H   SFRSYM    DATA     BYTE      IP2
      000000FFH   SFRSYM    DATA     BYTE      RSTCFG
      000000BCH.5 SFRSYM    DATA     BIT       ADC_FLAG
      000000C7H   SFRSYM    DATA     BYTE      IAP_CONTR
      000000F9H   SFRSYM    DATA     BYTE      LINICR
      0000008EH   SFRSYM    DATA     BYTE      AUXR
      000000AFH   SFRSYM    DATA     BYTE      IE2
      000000BCH.6 SFRSYM    DATA     BIT       ADC_START
      00000088H   SFRSYM    DATA     BYTE      TCON
      00000089H   SFRSYM    DATA     BYTE      TMOD
      00000098H   SFRSYM    DATA     BYTE      SCON
      000000F1H   SFRSYM    DATA     BYTE      CANICR
      00000087H   SFRSYM    DATA     BYTE      PCON
      000000BCH   SFRSYM    DATA     BYTE      ADC_CONTR
      00000080H.0 SFRSYM    DATA     BIT       P00
      000000E7H   SFRSYM    DATA     BYTE      CMPCR2
      000000E6H   SFRSYM    DATA     BYTE      CMPCR1
      000000DEH   SFRSYM    DATA     BYTE      ADCCFG
      000000B8H   SFRSYM    DATA     BYTE      IP
      0000008FH   SFRSYM    DATA     BYTE      INTCLKO
      000000EEH   SFRSYM    DATA     BYTE      IP3H
      000000B6H   SFRSYM    DATA     BYTE      IP2H
      000000BDH   SFRSYM    DATA     BYTE      ADC_RES
      000000A8H   SFRSYM    DATA     BYTE      IE
      000000BBH   SFRSYM    DATA     BYTE      P_SW3
      000000BAH   SFRSYM    DATA     BYTE      P_SW2
      000000A2H   SFRSYM    DATA     BYTE      P_SW1
      000000CEH   SFRSYM    DATA     BYTE      SPCTL
      000000F8H   SFRSYM    DATA     BYTE      P7
      000000E8H   SFRSYM    DATA     BYTE      P6
      000000C8H   SFRSYM    DATA     BYTE      P5
      000000C0H   SFRSYM    DATA     BYTE      P4
      000000B0H   SFRSYM    DATA     BYTE      P3
      000000A0H   SFRSYM    DATA     BYTE      P2
      00000090H   SFRSYM    DATA     BYTE      P1
      00000080H   SFRSYM    DATA     BYTE      P0

      00FF9180H   BLOCK     CODE     ---       LVL=0
      WR8         REGSYM    ---      WORD      dat
      00FF9182H   BLOCK     CODE     NEAR LAB  LVL=1
      R7          REGSYM    ---      BYTE      i
      ---         BLOCKEND  ---      ---       LVL=1
L251 LINKER/LOCATER V4.66.93.0                                                        04/24/2024  23:59:23  PAGE 27


      00FF9180H   LINE      CODE     ---       #23
      00FF9182H   LINE      CODE     ---       #24
      00FF9182H   LINE      CODE     ---       #25
      00FF9182H   LINE      CODE     ---       #26
      00FF9184H   LINE      CODE     ---       #28
      00FF918CH   LINE      CODE     ---       #29
      00FF9193H   LINE      CODE     ---       #30
      ---         BLOCKEND  ---      ---       LVL=0

      00FF819FH   BLOCK     CODE     ---       LVL=0
      00FF81A1H   BLOCK     CODE     NEAR LAB  LVL=1
      DR12        REGSYM    ---      DWORD     adc_dat
      000003ABH   SYMBOL    EDATA    BYTE      i
      ---         BLOCKEND  ---      ---       LVL=1
      00FF819FH   LINE      CODE     ---       #34
      00FF81A1H   LINE      CODE     ---       #35
      00FF81A1H   LINE      CODE     ---       #36
      00FF81A1H   LINE      CODE     ---       #37
      00FF81A1H   LINE      CODE     ---       #38
      00FF81A4H   LINE      CODE     ---       #39
      00FF81AFH   LINE      CODE     ---       #40
      00FF81BAH   LINE      CODE     ---       #41
      00FF81BFH   LINE      CODE     ---       #43
      00FF81C6H   LINE      CODE     ---       #44
      00FF81D8H   LINE      CODE     ---       #45
      00FF81DBH   LINE      CODE     ---       #46
      00FF81DFH   LINE      CODE     ---       #47
      00FF81FFH   LINE      CODE     ---       #48
      00FF8201H   LINE      CODE     ---       #49
      ---         BLOCKEND  ---      ---       LVL=0

      00FF897DH   BLOCK     CODE     ---       LVL=0
      WR4         REGSYM    ---      WORD      dat
      00FF897FH   BLOCK     CODE     NEAR LAB  LVL=1
      WR6         REGSYM    ---      WORD      adc_dat
      R3          REGSYM    ---      BYTE      i
      ---         BLOCKEND  ---      ---       LVL=1
      00FF897DH   LINE      CODE     ---       #52
      00FF897FH   LINE      CODE     ---       #53
      00FF897FH   LINE      CODE     ---       #54
      00FF8981H   LINE      CODE     ---       #55
      00FF8981H   LINE      CODE     ---       #56
      00FF8983H   LINE      CODE     ---       #58
      00FF898FH   LINE      CODE     ---       #59
      00FF8995H   LINE      CODE     ---       #60
      00FF8999H   LINE      CODE     ---       #61
      00FF899BH   LINE      CODE     ---       #63
      00FF89A5H   LINE      CODE     ---       #64
      00FF89ACH   LINE      CODE     ---       #65
      00FF89B2H   LINE      CODE     ---       #67
      00FF89B2H   LINE      CODE     ---       #68
      ---         BLOCKEND  ---      ---       LVL=0

      00FF8D15H   BLOCK     CODE     ---       LVL=0
      00FF8D15H   LINE      CODE     ---       #75
      00FF8D15H   LINE      CODE     ---       #77
      00FF8D22H   LINE      CODE     ---       #78
      00FF8D2BH   LINE      CODE     ---       #79
      00FF8D2EH   LINE      CODE     ---       #83
      00FF8D31H   LINE      CODE     ---       #84
      00FF8D36H   LINE      CODE     ---       #85
      00FF8D3CH   LINE      CODE     ---       #86
      00FF8D3DH   LINE      CODE     ---       #87
      00FF8D40H   LINE      CODE     ---       #88
      00FF8D41H   LINE      CODE     ---       #90
L251 LINKER/LOCATER V4.66.93.0                                                        04/24/2024  23:59:23  PAGE 28


      ---         BLOCKEND  ---      ---       LVL=0

      00FF8ABFH   BLOCK     CODE     ---       LVL=0
      R11         REGSYM    ---      BYTE      channel
      WR6         REGSYM    ---      WORD      i
      00FF8ABFH   LINE      CODE     ---       #92
      00FF8ABFH   LINE      CODE     ---       #93
      00FF8ABFH   LINE      CODE     ---       #94
      00FF8AC3H   LINE      CODE     ---       #95
      00FF8AC6H   LINE      CODE     ---       #96
      00FF8AC9H   LINE      CODE     ---       #97
      00FF8AD1H   LINE      CODE     ---       #98
      00FF8AD4H   LINE      CODE     ---       #100
      00FF8AE3H   LINE      CODE     ---       #101
      00FF8AE6H   LINE      CODE     ---       #102
      00FF8AF2H   LINE      CODE     ---       #103
      ---         BLOCKEND  ---      ---       LVL=0

      00FF7F6FH   BLOCK     CODE     ---       LVL=0
      00FF7F6FH   LINE      CODE     ---       #108
      00FF7F6FH   LINE      CODE     ---       #129
      00FF7F72H   LINE      CODE     ---       #132
      00FF7F7EH   LINE      CODE     ---       #134
      00FF7F80H   LINE      CODE     ---       #135
      00FF7F82H   LINE      CODE     ---       #138
      00FF7F8CH   LINE      CODE     ---       #139
      00FF7F8CH   LINE      CODE     ---       #140
      00FF7F94H   LINE      CODE     ---       #141
      00FF7FA4H   LINE      CODE     ---       #142
      00FF7FB0H   LINE      CODE     ---       #143
      00FF7FBCH   LINE      CODE     ---       #144
      00FF7FC8H   LINE      CODE     ---       #145
      00FF7FCAH   LINE      CODE     ---       #148
      00FF7FD4H   LINE      CODE     ---       #149
      00FF7FD4H   LINE      CODE     ---       #150
      00FF7FD7H   LINE      CODE     ---       #152
      ---         BLOCKEND  ---      ---       LVL=0

      00FF4BD7H   BLOCK     CODE     ---       LVL=0
      DR8         REGSYM    ---      DWORD     a
      WR6         REGSYM    ---      WORD      b
      00FF4BD7H   LINE      CODE     ---       #178
      00FF4BD7H   LINE      CODE     ---       #179
      00FF4BD7H   LINE      CODE     ---       #180
      00FF4BD9H   LINE      CODE     ---       #181
      00FF4BE2H   LINE      CODE     ---       #183
      00FF4BEEH   LINE      CODE     ---       #185
      00FF4BF2H   LINE      CODE     ---       #186
      00FF4BF5H   LINE      CODE     ---       #187
      00FF4C01H   LINE      CODE     ---       #189
      00FF4C16H   LINE      CODE     ---       #190
      00FF4C19H   LINE      CODE     ---       #191
      00FF4C25H   LINE      CODE     ---       #193
      00FF4C3AH   LINE      CODE     ---       #194
      00FF4C3DH   LINE      CODE     ---       #195
      00FF4C49H   LINE      CODE     ---       #197
      00FF4C5EH   LINE      CODE     ---       #198
      00FF4C61H   LINE      CODE     ---       #199
      00FF4C6DH   LINE      CODE     ---       #201
      00FF4C82H   LINE      CODE     ---       #202
      00FF4C85H   LINE      CODE     ---       #203
      00FF4C91H   LINE      CODE     ---       #205
      00FF4CA6H   LINE      CODE     ---       #206
      00FF4CA9H   LINE      CODE     ---       #207
      00FF4CB5H   LINE      CODE     ---       #209
L251 LINKER/LOCATER V4.66.93.0                                                        04/24/2024  23:59:23  PAGE 29


      00FF4CCAH   LINE      CODE     ---       #210
      00FF4CCDH   LINE      CODE     ---       #211
      00FF4CD9H   LINE      CODE     ---       #213
      00FF4CEEH   LINE      CODE     ---       #214
      00FF4CF1H   LINE      CODE     ---       #215
      00FF4CFDH   LINE      CODE     ---       #217
      00FF4D12H   LINE      CODE     ---       #218
      00FF4D14H   LINE      CODE     ---       #219
      00FF4D20H   LINE      CODE     ---       #221
      00FF4D35H   LINE      CODE     ---       #222
      00FF4D37H   LINE      CODE     ---       #223
      00FF4D43H   LINE      CODE     ---       #225
      00FF4D58H   LINE      CODE     ---       #226
      00FF4D5AH   LINE      CODE     ---       #227
      00FF4D66H   LINE      CODE     ---       #229
      00FF4D77H   LINE      CODE     ---       #230
      00FF4D79H   LINE      CODE     ---       #233
      00FF4D7BH   LINE      CODE     ---       #234
      00FF4D7BH   LINE      CODE     ---       #235
      00FF4D81H   LINE      CODE     ---       #236
      00FF4D84H   LINE      CODE     ---       #238
      00FF4DB2H   LINE      CODE     ---       #240
      00FF4DB8H   LINE      CODE     ---       #241
      00FF4DB9H   LINE      CODE     ---       #244
      00FF4DBFH   LINE      CODE     ---       #245
      00FF4DBFH   LINE      CODE     ---       #246
      ---         BLOCKEND  ---      ---       LVL=0

      00FF7270H   BLOCK     CODE     ---       LVL=0
      00FF7272H   BLOCK     CODE     NEAR LAB  LVL=1
      DR12        REGSYM    ---      DWORD     adc_dat
      ---         BLOCKEND  ---      ---       LVL=1
      00FF7270H   LINE      CODE     ---       #249
      00FF7272H   LINE      CODE     ---       #250
      00FF7272H   LINE      CODE     ---       #251
      00FF7272H   LINE      CODE     ---       #252
      00FF727FH   LINE      CODE     ---       #254
      00FF728BH   LINE      CODE     ---       #255
      00FF7297H   LINE      CODE     ---       #257
      00FF729EH   LINE      CODE     ---       #259
      00FF72BCH   LINE      CODE     ---       #261
      00FF72C1H   LINE      CODE     ---       #262
      00FF72C3H   LINE      CODE     ---       #265
      00FF72CAH   LINE      CODE     ---       #266
      00FF72CAH   LINE      CODE     ---       #270
      00FF72D0H   LINE      CODE     ---       #271
      00FF72DAH   LINE      CODE     ---       #273
      00FF72DFH   LINE      CODE     ---       #274
      00FF72E3H   LINE      CODE     ---       #275
      00FF7301H   LINE      CODE     ---       #276
      00FF7303H   LINE      CODE     ---       #277
      00FF7305H   LINE      CODE     ---       #280
      00FF730DH   LINE      CODE     ---       #281
      00FF730DH   LINE      CODE     ---       #282
      00FF7318H   LINE      CODE     ---       #283
      00FF731BH   LINE      CODE     ---       #284
      00FF7326H   LINE      CODE     ---       #285
      ---         BLOCKEND  ---      ---       LVL=0

      ---         MODULE    ---      ---       BH1745
      00FF6293H   PUBLIC    CODE     ---       BH1745_Rdat
      00FF8D6DH   PUBLIC    CODE     ---       BH1745_Init
      00FF8DC0H   PUBLIC    CODE     ---       BH1745R_flag0002
      000000D0H   SFRSYM    DATA     BYTE      PSW
      0000009DH   SFRSYM    DATA     BYTE      IRCBAND
L251 LINKER/LOCATER V4.66.93.0                                                        04/24/2024  23:59:23  PAGE 30


      00000097H   SFRSYM    DATA     BYTE      AUXR2
      000000EFH   SFRSYM    DATA     BYTE      AUXINTIF
      000000FDH   SFRSYM    DATA     BYTE      S4CON
      000000ACH   SFRSYM    DATA     BYTE      S3CON
      0000009AH   SFRSYM    DATA     BYTE      S2CON
      000000B7H   SFRSYM    DATA     BYTE      IPH
      000000CDH   SFRSYM    DATA     BYTE      SPSTAT
      000000DDH   SFRSYM    DATA     BYTE      T4T3M
      000000C1H   SFRSYM    DATA     BYTE      WDT_CONTR
      000000DFH   SFRSYM    DATA     BYTE      IP3
      000000F4H   SFRSYM    DATA     BYTE      USBCON
      000000B5H   SFRSYM    DATA     BYTE      IP2
      000000FFH   SFRSYM    DATA     BYTE      RSTCFG
      000000C7H   SFRSYM    DATA     BYTE      IAP_CONTR
      000000F9H   SFRSYM    DATA     BYTE      LINICR
      0000008EH   SFRSYM    DATA     BYTE      AUXR
      000000AFH   SFRSYM    DATA     BYTE      IE2
      00000088H   SFRSYM    DATA     BYTE      TCON
      00000089H   SFRSYM    DATA     BYTE      TMOD
      00000098H   SFRSYM    DATA     BYTE      SCON
      000000F1H   SFRSYM    DATA     BYTE      CANICR
      00000087H   SFRSYM    DATA     BYTE      PCON
      000000BCH   SFRSYM    DATA     BYTE      ADC_CONTR
      000000E7H   SFRSYM    DATA     BYTE      CMPCR2
      000000E6H   SFRSYM    DATA     BYTE      CMPCR1
      000000DEH   SFRSYM    DATA     BYTE      ADCCFG
      000000B8H   SFRSYM    DATA     BYTE      IP
      0000008FH   SFRSYM    DATA     BYTE      INTCLKO
      000000EEH   SFRSYM    DATA     BYTE      IP3H
      000000B6H   SFRSYM    DATA     BYTE      IP2H
      000000A8H   SFRSYM    DATA     BYTE      IE
      000000BBH   SFRSYM    DATA     BYTE      P_SW3
      000000BAH   SFRSYM    DATA     BYTE      P_SW2
      000000A2H   SFRSYM    DATA     BYTE      P_SW1
      000000CEH   SFRSYM    DATA     BYTE      SPCTL
      000000F8H   SFRSYM    DATA     BYTE      P7
      000000E8H   SFRSYM    DATA     BYTE      P6
      000000C8H   SFRSYM    DATA     BYTE      P5
      000000C0H   SFRSYM    DATA     BYTE      P4
      000000B0H   SFRSYM    DATA     BYTE      P3
      000000A0H   SFRSYM    DATA     BYTE      P2
      00000090H   SFRSYM    DATA     BYTE      P1
      00000080H   SFRSYM    DATA     BYTE      P0

      00FF8D6DH   BLOCK     CODE     ---       LVL=0
      00FF8D6DH   LINE      CODE     ---       #15
      00FF8D6DH   LINE      CODE     ---       #17
      00FF8D78H   LINE      CODE     ---       #18
      00FF8D7DH   LINE      CODE     ---       #19
      00FF8D87H   LINE      CODE     ---       #20
      00FF8D8CH   LINE      CODE     ---       #21
      ---         BLOCKEND  ---      ---       LVL=0

      00FF6293H   BLOCK     CODE     ---       LVL=0
      R15         REGSYM    ---      BYTE      adds
      00FF6297H   BLOCK     CODE     NEAR LAB  LVL=1
      WR14        REGSYM    ---      WORD      a
      WR12        REGSYM    ---      WORD      b
      ---         BLOCKEND  ---      ---       LVL=1
      00FF6293H   LINE      CODE     ---       #24
      00FF6297H   LINE      CODE     ---       #25
      00FF6297H   LINE      CODE     ---       #26
      00FF6297H   LINE      CODE     ---       #27
      00FF6297H   LINE      CODE     ---       #28
      00FF629AH   LINE      CODE     ---       #29
L251 LINKER/LOCATER V4.66.93.0                                                        04/24/2024  23:59:23  PAGE 31


      00FF629FH   LINE      CODE     ---       #30
      00FF62A2H   LINE      CODE     ---       #31
      00FF62A7H   LINE      CODE     ---       #32
      00FF62AAH   LINE      CODE     ---       #33
      00FF62ADH   LINE      CODE     ---       #34
      00FF62B2H   LINE      CODE     ---       #35
      00FF62B5H   LINE      CODE     ---       #36
      00FF62BAH   LINE      CODE     ---       #37
      00FF62BDH   LINE      CODE     ---       #38
      00FF62C2H   LINE      CODE     ---       #39
      00FF62C5H   LINE      CODE     ---       #40
      00FF62D1H   LINE      CODE     ---       #41
      00FF62D7H   LINE      CODE     ---       #43
      00FF62EDH   LINE      CODE     ---       #44
      00FF62EDH   LINE      CODE     ---       #50
      00FF62F2H   LINE      CODE     ---       #51
      00FF62F5H   LINE      CODE     ---       #52
      00FF62FAH   LINE      CODE     ---       #53
      00FF62FDH   LINE      CODE     ---       #54
      00FF6309H   LINE      CODE     ---       #55
      00FF630FH   LINE      CODE     ---       #57
      00FF6325H   LINE      CODE     ---       #58
      00FF6325H   LINE      CODE     ---       #60
      00FF632AH   LINE      CODE     ---       #61
      00FF632DH   LINE      CODE     ---       #62
      00FF6332H   LINE      CODE     ---       #63
      00FF6335H   LINE      CODE     ---       #64
      00FF6341H   LINE      CODE     ---       #65
      00FF6347H   LINE      CODE     ---       #67
      00FF635DH   LINE      CODE     ---       #68
      00FF635DH   LINE      CODE     ---       #70
      00FF6362H   LINE      CODE     ---       #71
      00FF6365H   LINE      CODE     ---       #72
      00FF636AH   LINE      CODE     ---       #73
      00FF636DH   LINE      CODE     ---       #74
      00FF6379H   LINE      CODE     ---       #75
      00FF637FH   LINE      CODE     ---       #77
      00FF6395H   LINE      CODE     ---       #78
      ---         BLOCKEND  ---      ---       LVL=0

      00FF8DC0H   BLOCK     CODE     ---       LVL=0
      00FF8DC0H   LINE      CODE     ---       #96
      00FF8DC0H   LINE      CODE     ---       #98
      00FF8DCAH   LINE      CODE     ---       #100
      00FF8DCFH   LINE      CODE     ---       #101
      00FF8DDAH   LINE      CODE     ---       #102
      00FF8DE5H   LINE      CODE     ---       #103
      ---         BLOCKEND  ---      ---       LVL=0

      ---         MODULE    ---      ---       BMC050
      00FF8F96H   PUBLIC    CODE     ---       Magnetometer_OPEN
      00FF8F1EH   PUBLIC    CODE     ---       convert_1
      00FF8BC3H   PUBLIC    CODE     ---       Magnetometer_falg_0080
      00FF6B25H   PUBLIC    CODE     ---       atan
      00FF5783H   PUBLIC    CODE     ---       Magnetometer_measure
      00FF848CH   PUBLIC    CODE     ---       Get_Magnetism_dat
      00FF929AH   PUBLIC    CODE     ---       Magnetometer_Close
      00FF87ABH   PUBLIC    CODE     ---       Magnetometer_measure_1
      00FF7B6AH   PUBLIC    CODE     ---       Angle_calculation
      00FF8C59H   PUBLIC    CODE     ---       Magnetometer_initi
      00FF8F3CH   PUBLIC    CODE     ---       angle
      00000325H   PUBLIC    EDATA    ---       Magnetism_X1
      00000333H   PUBLIC    EDATA    ---       Magnetism_Y1
      00000341H   PUBLIC    EDATA    ---       Magnetism_JD
      0000034BH   PUBLIC    EDATA    WORD      JD_low
L251 LINKER/LOCATER V4.66.93.0                                                        04/24/2024  23:59:23  PAGE 32


      0000034DH   PUBLIC    EDATA    ---       Magnetism_JD1
      00000357H   PUBLIC    EDATA    ---       Magnetism_X
      00000365H   PUBLIC    EDATA    ---       Magnetism_Y
      00000373H   PUBLIC    EDATA    BYTE      JD_low_num
      000000D0H   SFRSYM    DATA     BYTE      PSW
      0000009DH   SFRSYM    DATA     BYTE      IRCBAND
      00000097H   SFRSYM    DATA     BYTE      AUXR2
      000000EFH   SFRSYM    DATA     BYTE      AUXINTIF
      000000FDH   SFRSYM    DATA     BYTE      S4CON
      000000ACH   SFRSYM    DATA     BYTE      S3CON
      0000009AH   SFRSYM    DATA     BYTE      S2CON
      000000B7H   SFRSYM    DATA     BYTE      IPH
      000000CDH   SFRSYM    DATA     BYTE      SPSTAT
      000000DDH   SFRSYM    DATA     BYTE      T4T3M
      000000C1H   SFRSYM    DATA     BYTE      WDT_CONTR
      000000DFH   SFRSYM    DATA     BYTE      IP3
      000000F4H   SFRSYM    DATA     BYTE      USBCON
      000000B5H   SFRSYM    DATA     BYTE      IP2
      000000FFH   SFRSYM    DATA     BYTE      RSTCFG
      000000C7H   SFRSYM    DATA     BYTE      IAP_CONTR
      000000F9H   SFRSYM    DATA     BYTE      LINICR
      0000008EH   SFRSYM    DATA     BYTE      AUXR
      000000AFH   SFRSYM    DATA     BYTE      IE2
      00000088H   SFRSYM    DATA     BYTE      TCON
      00000089H   SFRSYM    DATA     BYTE      TMOD
      00000098H   SFRSYM    DATA     BYTE      SCON
      000000F1H   SFRSYM    DATA     BYTE      CANICR
      00000087H   SFRSYM    DATA     BYTE      PCON
      000000BCH   SFRSYM    DATA     BYTE      ADC_CONTR
      000000E7H   SFRSYM    DATA     BYTE      CMPCR2
      000000E6H   SFRSYM    DATA     BYTE      CMPCR1
      000000DEH   SFRSYM    DATA     BYTE      ADCCFG
      000000B8H   SFRSYM    DATA     BYTE      IP
      0000008FH   SFRSYM    DATA     BYTE      INTCLKO
      000000EEH   SFRSYM    DATA     BYTE      IP3H
      000000B6H   SFRSYM    DATA     BYTE      IP2H
      000000A8H   SFRSYM    DATA     BYTE      IE
      000000BBH   SFRSYM    DATA     BYTE      P_SW3
      000000BAH   SFRSYM    DATA     BYTE      P_SW2
      000000A2H   SFRSYM    DATA     BYTE      P_SW1
      000000CEH   SFRSYM    DATA     BYTE      SPCTL
      000000F8H   SFRSYM    DATA     BYTE      P7
      000000E8H   SFRSYM    DATA     BYTE      P6
      000000C8H   SFRSYM    DATA     BYTE      P5
      000000C0H   SFRSYM    DATA     BYTE      P4
      000000B0H   SFRSYM    DATA     BYTE      P3
      000000A0H   SFRSYM    DATA     BYTE      P2
      00000090H   SFRSYM    DATA     BYTE      P1
      00000080H   SFRSYM    DATA     BYTE      P0

      00FF848CH   BLOCK     CODE     ---       LVL=0
      REG=0       REGSYM    ---      ---       dat1
      WR30        REGSYM    ---      WORD      dat
      R15         REGSYM    ---      BYTE      num
      00FF8490H   BLOCK     CODE     NEAR LAB  LVL=1
      WR6         REGSYM    ---      INT       adc_dat
      R5          REGSYM    ---      BYTE      i
      ---         BLOCKEND  ---      ---       LVL=1
      00FF848CH   LINE      CODE     ---       #39
      00FF8490H   LINE      CODE     ---       #40
      00FF8490H   LINE      CODE     ---       #41
      00FF8492H   LINE      CODE     ---       #42
      00FF8492H   LINE      CODE     ---       #43
      00FF8496H   LINE      CODE     ---       #44
      00FF849AH   LINE      CODE     ---       #46
L251 LINKER/LOCATER V4.66.93.0                                                        04/24/2024  23:59:23  PAGE 33


      00FF84A9H   LINE      CODE     ---       #47
      00FF84AFH   LINE      CODE     ---       #48
      00FF84BAH   LINE      CODE     ---       #49
      00FF84BCH   LINE      CODE     ---       #50
      00FF84C0H   LINE      CODE     ---       #52
      00FF84CDH   LINE      CODE     ---       #53
      00FF84D3H   LINE      CODE     ---       #54
      00FF84D8H   LINE      CODE     ---       #56
      00FF84D8H   LINE      CODE     ---       #57
      ---         BLOCKEND  ---      ---       LVL=0

      00FF8F1EH   BLOCK     CODE     ---       LVL=0
      WR2         REGSYM    ---      WORD      dat1
      00FF8F20H   BLOCK     CODE     NEAR LAB  LVL=1
      WR6         REGSYM    ---      INT       adc_dat
      ---         BLOCKEND  ---      ---       LVL=1
      00FF8F1EH   LINE      CODE     ---       #59
      00FF8F20H   LINE      CODE     ---       #60
      00FF8F20H   LINE      CODE     ---       #61
      00FF8F22H   LINE      CODE     ---       #64
      00FF8F2AH   LINE      CODE     ---       #66
      00FF8F32H   LINE      CODE     ---       #67
      00FF8F38H   LINE      CODE     ---       #68
      00FF8F39H   LINE      CODE     ---       #71
      00FF8F3BH   LINE      CODE     ---       #72
      00FF8F3BH   LINE      CODE     ---       #74
      00FF8F3BH   LINE      CODE     ---       #75
      ---         BLOCKEND  ---      ---       LVL=0

      00FF8C59H   BLOCK     CODE     ---       LVL=0
      00FF8C59H   LINE      CODE     ---       #86
      00FF8C59H   LINE      CODE     ---       #88
      00FF8C64H   LINE      CODE     ---       #89
      00FF8C6BH   LINE      CODE     ---       #90
      00FF8C76H   LINE      CODE     ---       #91
      00FF8C80H   LINE      CODE     ---       #92
      ---         BLOCKEND  ---      ---       LVL=0

      00FF8F96H   BLOCK     CODE     ---       LVL=0
      00FF8F96H   LINE      CODE     ---       #96
      00FF8F96H   LINE      CODE     ---       #98
      00FF8FA1H   LINE      CODE     ---       #99
      00FF8FACH   LINE      CODE     ---       #100
      ---         BLOCKEND  ---      ---       LVL=0

      00FF929AH   BLOCK     CODE     ---       LVL=0
      00FF929AH   LINE      CODE     ---       #103
      00FF929AH   LINE      CODE     ---       #105
      ---         BLOCKEND  ---      ---       LVL=0
      R15         REGSYM    ---      BYTE      addre
      DR28        REGSYM    ---      LONG      num

      00FF6B25H   BLOCK     CODE     ---       LVL=0
      WR0         REGSYM    ---      INT       x1
      WR2         REGSYM    ---      INT       y1
      00FF6B2BH   BLOCK     CODE     NEAR LAB  LVL=1
      WR8         REGSYM    ---      INT       i
      DR24        REGSYM    ---      LONG      x_new
      DR20        REGSYM    ---      LONG      y_new
      000003ABH   SYMBOL    EDATA    LONG      xx
      000003AFH   SYMBOL    EDATA    LONG      yy
      DR28        REGSYM    ---      LONG      angleSum
      DR16        REGSYM    ---      LONG      x
      DR12        REGSYM    ---      LONG      y
      ---         BLOCKEND  ---      ---       LVL=1
L251 LINKER/LOCATER V4.66.93.0                                                        04/24/2024  23:59:23  PAGE 34


      00FF6B25H   LINE      CODE     ---       #160
      00FF6B2BH   LINE      CODE     ---       #161
      00FF6B2BH   LINE      CODE     ---       #162
      00FF6B2BH   LINE      CODE     ---       #163
      00FF6B2DH   LINE      CODE     ---       #164
      00FF6B2DH   LINE      CODE     ---       #166
      00FF6B2DH   LINE      CODE     ---       #167
      00FF6B33H   LINE      CODE     ---       #168
      00FF6B39H   LINE      CODE     ---       #170
      00FF6B4AH   LINE      CODE     ---       #171
      00FF6B5BH   LINE      CODE     ---       #173
      00FF6B68H   LINE      CODE     ---       #174
      00FF6B71H   LINE      CODE     ---       #175
      00FF6B73H   LINE      CODE     ---       #177
      00FF6B89H   LINE      CODE     ---       #178
      00FF6B9FH   LINE      CODE     ---       #179
      00FF6BA5H   LINE      CODE     ---       #181
      00FF6BABH   LINE      CODE     ---       #182
      00FF6BB3H   LINE      CODE     ---       #183
      00FF6BC8H   LINE      CODE     ---       #184
      00FF6BCAH   LINE      CODE     ---       #187
      00FF6BD2H   LINE      CODE     ---       #188
      00FF6BD8H   LINE      CODE     ---       #189
      00FF6BEDH   LINE      CODE     ---       #190
      00FF6BEDH   LINE      CODE     ---       #191
      00FF6BEFH   LINE      CODE     ---       #192
      00FF6BF1H   LINE      CODE     ---       #193
      00FF6BFCH   LINE      CODE     ---       #195
      00FF6BFEH   LINE      CODE     ---       #196
      ---         BLOCKEND  ---      ---       LVL=0

      00FF7B6AH   BLOCK     CODE     ---       LVL=0
      WR2         REGSYM    ---      INT       x1
      WR4         REGSYM    ---      INT       y1
      00FF7B6EH   BLOCK     CODE     NEAR LAB  LVL=1
      R14         REGSYM    ---      BYTE      a
      R15         REGSYM    ---      BYTE      b
      WR6         REGSYM    ---      WORD      Angle
      ---         BLOCKEND  ---      ---       LVL=1
      00FF7B6AH   LINE      CODE     ---       #199
      00FF7B6EH   LINE      CODE     ---       #200
      00FF7B6EH   LINE      CODE     ---       #201
      00FF7B70H   LINE      CODE     ---       #202
      00FF7B72H   LINE      CODE     ---       #203
      00FF7B72H   LINE      CODE     ---       #205
      00FF7B7BH   LINE      CODE     ---       #206
      00FF7B84H   LINE      CODE     ---       #208
      00FF7B88H   LINE      CODE     ---       #210
      00FF7B8EH   LINE      CODE     ---       #212
      00FF7B92H   LINE      CODE     ---       #213
      00FF7B94H   LINE      CODE     ---       #216
      00FF7B98H   LINE      CODE     ---       #217
      00FF7B98H   LINE      CODE     ---       #218
      00FF7B9AH   LINE      CODE     ---       #219
      00FF7B9EH   LINE      CODE     ---       #221
      00FF7BA4H   LINE      CODE     ---       #223
      00FF7BA8H   LINE      CODE     ---       #224
      00FF7BAAH   LINE      CODE     ---       #227
      00FF7BAEH   LINE      CODE     ---       #228
      00FF7BAEH   LINE      CODE     ---       #229
      00FF7BB0H   LINE      CODE     ---       #232
      00FF7BB9H   LINE      CODE     ---       #234
      00FF7BC1H   LINE      CODE     ---       #236
      00FF7BC5H   LINE      CODE     ---       #237
      00FF7BC7H   LINE      CODE     ---       #238
L251 LINKER/LOCATER V4.66.93.0                                                        04/24/2024  23:59:23  PAGE 35


      00FF7BCFH   LINE      CODE     ---       #240
      00FF7BD3H   LINE      CODE     ---       #241
      00FF7BD5H   LINE      CODE     ---       #242
      00FF7BDDH   LINE      CODE     ---       #244
      00FF7BE1H   LINE      CODE     ---       #245
      00FF7BE3H   LINE      CODE     ---       #248
      00FF7BEBH   LINE      CODE     ---       #249
      00FF7BEBH   LINE      CODE     ---       #251
      00FF7BEBH   LINE      CODE     ---       #253
      00FF7BF1H   LINE      CODE     ---       #260
      ---         BLOCKEND  ---      ---       LVL=0

      00FF87ABH   BLOCK     CODE     ---       LVL=0
      R14         REGSYM    ---      BYTE      aa
      R15         REGSYM    ---      BYTE      b
      00FF87B1H   BLOCK     CODE     NEAR LAB  LVL=1
      000003ABH   SYMBOL    EDATA    BYTE      a
      WR12        REGSYM    ---      WORD      c
      ---         BLOCKEND  ---      ---       LVL=1
      00FF87ABH   LINE      CODE     ---       #272
      00FF87B1H   LINE      CODE     ---       #273
      00FF87B1H   LINE      CODE     ---       #274
      00FF87B1H   LINE      CODE     ---       #275
      00FF87B1H   LINE      CODE     ---       #276
      00FF87B8H   LINE      CODE     ---       #277
      00FF87BBH   LINE      CODE     ---       #278
      00FF87C0H   LINE      CODE     ---       #279
      00FF87C4H   LINE      CODE     ---       #281
      00FF87C7H   LINE      CODE     ---       #282
      00FF87C9H   LINE      CODE     ---       #285
      00FF87CCH   LINE      CODE     ---       #286
      00FF87CFH   LINE      CODE     ---       #287
      00FF87CFH   LINE      CODE     ---       #288
      00FF87E4H   LINE      CODE     ---       #289
      00FF87E6H   LINE      CODE     ---       #291
      ---         BLOCKEND  ---      ---       LVL=0

      00FF5783H   BLOCK     CODE     ---       LVL=0
      00FF5783H   LINE      CODE     ---       #294
      00FF5783H   LINE      CODE     ---       #295
      00FF5783H   LINE      CODE     ---       #297
      00FF5783H   LINE      CODE     ---       #298
      00FF5783H   LINE      CODE     ---       #300
      00FF578EH   LINE      CODE     ---       #303
      00FF5791H   LINE      CODE     ---       #304
      00FF5796H   LINE      CODE     ---       #305
      00FF579DH   LINE      CODE     ---       #306
      00FF57A2H   LINE      CODE     ---       #307
      00FF57A5H   LINE      CODE     ---       #309
      00FF57A8H   LINE      CODE     ---       #310
      00FF57ADH   LINE      CODE     ---       #311
      00FF57B0H   LINE      CODE     ---       #313
      00FF57BEH   LINE      CODE     ---       #314
      00FF57CCH   LINE      CODE     ---       #315
      00FF57DAH   LINE      CODE     ---       #316
      00FF57E7H   LINE      CODE     ---       #320
      00FF57F6H   LINE      CODE     ---       #321
      00FF5805H   LINE      CODE     ---       #325
      00FF581AH   LINE      CODE     ---       #326
      00FF5829H   LINE      CODE     ---       #328
      00FF583EH   LINE      CODE     ---       #329
      00FF584DH   LINE      CODE     ---       #342
      00FF585DH   LINE      CODE     ---       #344
      00FF5869H   LINE      CODE     ---       #345
      00FF5869H   LINE      CODE     ---       #346
L251 LINKER/LOCATER V4.66.93.0                                                        04/24/2024  23:59:23  PAGE 36


      00FF5873H   LINE      CODE     ---       #348
      00FF587FH   LINE      CODE     ---       #349
      00FF587FH   LINE      CODE     ---       #350
      00FF588FH   LINE      CODE     ---       #352
      00FF589BH   LINE      CODE     ---       #353
      00FF589BH   LINE      CODE     ---       #354
      00FF58A5H   LINE      CODE     ---       #356
      00FF58B1H   LINE      CODE     ---       #357
      00FF58B1H   LINE      CODE     ---       #360
      00FF58D0H   LINE      CODE     ---       #361
      00FF58EBH   LINE      CODE     ---       #364
      00FF58FBH   LINE      CODE     ---       #365
      00FF5909H   LINE      CODE     ---       #367
      ---         BLOCKEND  ---      ---       LVL=0

      00FF8BC3H   BLOCK     CODE     ---       LVL=0
      00FF8BC3H   LINE      CODE     ---       #403
      00FF8BC3H   LINE      CODE     ---       #407
      00FF8BCFH   LINE      CODE     ---       #409
      00FF8BD6H   LINE      CODE     ---       #410
      00FF8BE2H   LINE      CODE     ---       #412
      00FF8BE5H   LINE      CODE     ---       #413
      00FF8BE8H   LINE      CODE     ---       #414
      00FF8BF4H   LINE      CODE     ---       #415
      00FF8BF4H   LINE      CODE     ---       #417
      ---         BLOCKEND  ---      ---       LVL=0

      ---         MODULE    ---      ---       CompassMenu
      00FF0012H   PUBLIC    CODE     ---       UI_CompassMenu_time
      00FF8AF3H   PUBLIC    CODE     ---       UI_CompassMenu_int
      00FF768FH   PUBLIC    CODE     ---       UI_Compass_Animation
      00FF6DAAH   PUBLIC    CODE     ---       UI_Compass_Animation_1
      00FF921CH   PUBLIC    CODE     ---       UI_CompassMenu
      00000399H   PUBLIC    EDATA    WORD      start_X_low
      0000039BH   PUBLIC    EDATA    ---       Compass_Scale
      000003A0H   PUBLIC    EDATA    ---       Compass_data
      000003AAH   PUBLIC    EDATA    BYTE      test1
      00000020H.0 PUBLIC    BIT      BIT       ?UI_Compass_Animation_1?BIT
      000000D0H   SFRSYM    DATA     BYTE      PSW
      0000009DH   SFRSYM    DATA     BYTE      IRCBAND
      00000097H   SFRSYM    DATA     BYTE      AUXR2
      000000EFH   SFRSYM    DATA     BYTE      AUXINTIF
      000000FDH   SFRSYM    DATA     BYTE      S4CON
      000000ACH   SFRSYM    DATA     BYTE      S3CON
      0000009AH   SFRSYM    DATA     BYTE      S2CON
      000000B7H   SFRSYM    DATA     BYTE      IPH
      000000CDH   SFRSYM    DATA     BYTE      SPSTAT
      000000DDH   SFRSYM    DATA     BYTE      T4T3M
      000000C1H   SFRSYM    DATA     BYTE      WDT_CONTR
      000000DFH   SFRSYM    DATA     BYTE      IP3
      000000F4H   SFRSYM    DATA     BYTE      USBCON
      000000B5H   SFRSYM    DATA     BYTE      IP2
      000000FFH   SFRSYM    DATA     BYTE      RSTCFG
      000000C7H   SFRSYM    DATA     BYTE      IAP_CONTR
      000000F9H   SFRSYM    DATA     BYTE      LINICR
      0000008EH   SFRSYM    DATA     BYTE      AUXR
      000000AFH   SFRSYM    DATA     BYTE      IE2
      00000088H   SFRSYM    DATA     BYTE      TCON
      00000089H   SFRSYM    DATA     BYTE      TMOD
      00000098H   SFRSYM    DATA     BYTE      SCON
      000000F1H   SFRSYM    DATA     BYTE      CANICR
      00000087H   SFRSYM    DATA     BYTE      PCON
      000000BCH   SFRSYM    DATA     BYTE      ADC_CONTR
      000000E7H   SFRSYM    DATA     BYTE      CMPCR2
      000000E6H   SFRSYM    DATA     BYTE      CMPCR1
L251 LINKER/LOCATER V4.66.93.0                                                        04/24/2024  23:59:23  PAGE 37


      000000DEH   SFRSYM    DATA     BYTE      ADCCFG
      000000B8H   SFRSYM    DATA     BYTE      IP
      0000008FH   SFRSYM    DATA     BYTE      INTCLKO
      000000EEH   SFRSYM    DATA     BYTE      IP3H
      000000B6H   SFRSYM    DATA     BYTE      IP2H
      000000A8H   SFRSYM    DATA     BYTE      IE
      000000BBH   SFRSYM    DATA     BYTE      P_SW3
      000000BAH   SFRSYM    DATA     BYTE      P_SW2
      000000A2H   SFRSYM    DATA     BYTE      P_SW1
      000000CEH   SFRSYM    DATA     BYTE      SPCTL
      000000F8H   SFRSYM    DATA     BYTE      P7
      000000E8H   SFRSYM    DATA     BYTE      P6
      000000C8H   SFRSYM    DATA     BYTE      P5
      000000C0H   SFRSYM    DATA     BYTE      P4
      000000B0H   SFRSYM    DATA     BYTE      P3
      000000A0H   SFRSYM    DATA     BYTE      P2
      00000090H   SFRSYM    DATA     BYTE      P1
      00000080H   SFRSYM    DATA     BYTE      P0

      00FF6DAAH   BLOCK     CODE     ---       LVL=0
      R15         REGSYM    ---      BYTE      a
      00000020H.0 SYMBOL    BIT      BIT       clear
      00FF6DAAH   LINE      CODE     ---       #25
      00FF6DAEH   LINE      CODE     ---       #27
      00FF6DBCH   LINE      CODE     ---       #28
      00FF6DC2H   LINE      CODE     ---       #29
      00FF6DC5H   LINE      CODE     ---       #31
      00FF6DCAH   LINE      CODE     ---       #32
      00FF6DDCH   LINE      CODE     ---       #34
      00FF6DF3H   LINE      CODE     ---       #35
      00FF6DF5H   LINE      CODE     ---       #38
      00FF6E06H   LINE      CODE     ---       #39
      00FF6E06H   LINE      CODE     ---       #40
      00FF6E08H   LINE      CODE     ---       #43
      00FF6E1AH   LINE      CODE     ---       #45
      00FF6E1FH   LINE      CODE     ---       #46
      00FF6E51H   LINE      CODE     ---       #47
      00FF6E53H   LINE      CODE     ---       #50
      00FF6E58H   LINE      CODE     ---       #51
      00FF6E78H   LINE      CODE     ---       #52
      00FF6E78H   LINE      CODE     ---       #53
      00FF6E78H   LINE      CODE     ---       #54
      ---         BLOCKEND  ---      ---       LVL=0

      00FF8AF3H   BLOCK     CODE     ---       LVL=0
      00FF8AF5H   BLOCK     CODE     NEAR LAB  LVL=1
      R15         REGSYM    ---      BYTE      i
      ---         BLOCKEND  ---      ---       LVL=1
      00FF8AF3H   LINE      CODE     ---       #71
      00FF8AF5H   LINE      CODE     ---       #72
      00FF8AF5H   LINE      CODE     ---       #73
      00FF8AF5H   LINE      CODE     ---       #74
      00FF8AF8H   LINE      CODE     ---       #75
      00FF8AFFH   LINE      CODE     ---       #76
      00FF8B01H   LINE      CODE     ---       #78
      00FF8B06H   LINE      CODE     ---       #79
      00FF8B0DH   LINE      CODE     ---       #80
      00FF8B18H   LINE      CODE     ---       #81
      00FF8B24H   LINE      CODE     ---       #85
      ---         BLOCKEND  ---      ---       LVL=0

      00FF768FH   BLOCK     CODE     ---       LVL=0
      00FF7691H   BLOCK     CODE     NEAR LAB  LVL=1
      R15         REGSYM    ---      BYTE      i
      000003ABH   SYMBOL    EDATA    WORD      start_X
L251 LINKER/LOCATER V4.66.93.0                                                        04/24/2024  23:59:23  PAGE 38


      WR12        REGSYM    ---      WORD      b
      ---         BLOCKEND  ---      ---       LVL=1
      00FF768FH   LINE      CODE     ---       #88
      00FF7691H   LINE      CODE     ---       #89
      00FF7691H   LINE      CODE     ---       #90
      00FF7691H   LINE      CODE     ---       #91
      00FF7697H   LINE      CODE     ---       #92
      00FF7697H   LINE      CODE     ---       #93
      00FF7697H   LINE      CODE     ---       #95
      00FF7697H   LINE      CODE     ---       #96
      00FF7697H   LINE      CODE     ---       #97
      00FF7697H   LINE      CODE     ---       #98
      00FF7697H   LINE      CODE     ---       #101
      00FF76AAH   LINE      CODE     ---       #103
      00FF76ACH   LINE      CODE     ---       #105
      00FF76B3H   LINE      CODE     ---       #106
      00FF76BAH   LINE      CODE     ---       #108
      00FF76C6H   LINE      CODE     ---       #110
      00FF76D0H   LINE      CODE     ---       #111
      00FF76D2H   LINE      CODE     ---       #114
      00FF76DAH   LINE      CODE     ---       #115
      00FF76DAH   LINE      CODE     ---       #116
      00FF76E4H   LINE      CODE     ---       #117
      00FF76E8H   LINE      CODE     ---       #118
      00FF76EDH   LINE      CODE     ---       #119
      00FF76EFH   LINE      CODE     ---       #121
      00FF76FBH   LINE      CODE     ---       #122
      00FF770BH   LINE      CODE     ---       #123
      00FF770FH   LINE      CODE     ---       #124
      00FF7716H   LINE      CODE     ---       #125
      00FF7718H   LINE      CODE     ---       #127
      00FF771FH   LINE      CODE     ---       #128
      00FF7726H   LINE      CODE     ---       #129
      00FF7732H   LINE      CODE     ---       #130
      ---         BLOCKEND  ---      ---       LVL=0

      00FF0012H   BLOCK     CODE     ---       LVL=0
      00FF0012H   LINE      CODE     ---       #140
      00FF0012H   LINE      CODE     ---       #142
      00FF0012H   LINE      CODE     ---       #146
      ---         BLOCKEND  ---      ---       LVL=0

      00FF921CH   BLOCK     CODE     ---       LVL=0
      00FF921CH   LINE      CODE     ---       #151
      00FF921CH   LINE      CODE     ---       #157
      00FF921FH   LINE      CODE     ---       #159
      ---         BLOCKEND  ---      ---       LVL=0

      ---         MODULE    ---      ---       DATA
      00FF91D0H   PUBLIC    CODE     ---       GET_GBdat
      00FF8725H   PUBLIC    CODE     ---       SleepQueue_MoveLeft
      00FF91E3H   PUBLIC    CODE     ---       GET_SCdat
      00FF8768H   PUBLIC    CODE     ---       Array_Initialization_
      00FF7735H   PUBLIC    CODE     ---       data00_Change
      00FF9006H   PUBLIC    CODE     ---       X10_to_BCD
      00FF8FEBH   PUBLIC    CODE     ---       BCD_to_X10
      00FF901FH   PUBLIC    CODE     ---       SleepQueue_behindW
      00FF8EDFH   PUBLIC    CODE     ---       array_fill
      00FF7AD6H   PUBLIC    CODE     ---       GET_time_c
      00FF8329H   PUBLIC    CODE     ---       SET_time_c
      00FF80C6H   PUBLIC    CODE     ---       data_GetMin
      00FF7EF9H   PUBLIC    CODE     ---       dat00_Change
      00FF922DH   PUBLIC    CODE     ---       GET_SCdat3
      00FF6C01H   PUBLIC    CODE     ---       data_GetMax
      00FF9156H   PUBLIC    CODE     ---       Array_Initialization_8
L251 LINKER/LOCATER V4.66.93.0                                                        04/24/2024  23:59:23  PAGE 39


      00FF923EH   PUBLIC    CODE     ---       GET_SC
      00FF86E0H   PUBLIC    CODE     ---       RFF
      00FF5E46H   PUBLIC    CODE     ---       SleepQueue_aheadW1
      00FF91F6H   PUBLIC    CODE     ---       GET_WEEK
      00FF607CH   PUBLIC    CODE     ---       Alarm_conversion_32TO16
      00FF6A3BH   PUBLIC    CODE     ---       Alarm_conversion_16TO32
      00FF79AAH   PUBLIC    CODE     ---       fast_SleepQueue_aheadW1
      00FF9194H   PUBLIC    CODE     ---       SET_WEEK
      00FF8FB3H   PUBLIC    CODE     ---       Array_Initialization_16
      00010000H   PUBLIC    XDATA    ---       dat00_flag
      00010120H   PUBLIC    XDATA    ---       dat00
      00010360H   PUBLIC    XDATA    ---       Time_New
      00010367H   PUBLIC    XDATA    ---       Time_Low
      0001036EH   PUBLIC    XDATA    ---       Time_int
      00010375H   PUBLIC    XDATA    ---       dat00_max
      000105B5H   PUBLIC    XDATA    ---       dat00_low
      00000021H   PUBLIC    EDATA    ---       UI_TX
      000000E1H   PUBLIC    EDATA    ---       UI_dat
      00000161H   PUBLIC    EDATA    WORD      Sleep_Queue_count_target
      00000163H   PUBLIC    EDATA    ---       AlarmClock
      000001A3H   PUBLIC    EDATA    ---       Sleep_Queue
      00000263H   PUBLIC    EDATA    WORD      Sleep_Queue_count
      00000265H   PUBLIC    EDATA    ---       Sleep_Queue_task
      000000D0H   SFRSYM    DATA     BYTE      PSW
      0000009DH   SFRSYM    DATA     BYTE      IRCBAND
      00000097H   SFRSYM    DATA     BYTE      AUXR2
      000000EFH   SFRSYM    DATA     BYTE      AUXINTIF
      000000FDH   SFRSYM    DATA     BYTE      S4CON
      000000ACH   SFRSYM    DATA     BYTE      S3CON
      0000009AH   SFRSYM    DATA     BYTE      S2CON
      000000B7H   SFRSYM    DATA     BYTE      IPH
      000000CDH   SFRSYM    DATA     BYTE      SPSTAT
      000000DDH   SFRSYM    DATA     BYTE      T4T3M
      000000C1H   SFRSYM    DATA     BYTE      WDT_CONTR
      000000DFH   SFRSYM    DATA     BYTE      IP3
      000000F4H   SFRSYM    DATA     BYTE      USBCON
      000000B5H   SFRSYM    DATA     BYTE      IP2
      000000FFH   SFRSYM    DATA     BYTE      RSTCFG
      000000C7H   SFRSYM    DATA     BYTE      IAP_CONTR
      000000F9H   SFRSYM    DATA     BYTE      LINICR
      0000008EH   SFRSYM    DATA     BYTE      AUXR
      000000AFH   SFRSYM    DATA     BYTE      IE2
      00000088H   SFRSYM    DATA     BYTE      TCON
      00000089H   SFRSYM    DATA     BYTE      TMOD
      00000098H   SFRSYM    DATA     BYTE      SCON
      000000F1H   SFRSYM    DATA     BYTE      CANICR
      00000087H   SFRSYM    DATA     BYTE      PCON
      000000BCH   SFRSYM    DATA     BYTE      ADC_CONTR
      000000E7H   SFRSYM    DATA     BYTE      CMPCR2
      000000E6H   SFRSYM    DATA     BYTE      CMPCR1
      000000DEH   SFRSYM    DATA     BYTE      ADCCFG
      000000B8H   SFRSYM    DATA     BYTE      IP
      0000008FH   SFRSYM    DATA     BYTE      INTCLKO
      000000EEH   SFRSYM    DATA     BYTE      IP3H
      000000B6H   SFRSYM    DATA     BYTE      IP2H
      000000A8H   SFRSYM    DATA     BYTE      IE
      000000BBH   SFRSYM    DATA     BYTE      P_SW3
      000000BAH   SFRSYM    DATA     BYTE      P_SW2
      000000A2H   SFRSYM    DATA     BYTE      P_SW1
      000000CEH   SFRSYM    DATA     BYTE      SPCTL
      000000F8H   SFRSYM    DATA     BYTE      P7
      000000E8H   SFRSYM    DATA     BYTE      P6
      000000C8H   SFRSYM    DATA     BYTE      P5
      000000C0H   SFRSYM    DATA     BYTE      P4
      000000B0H   SFRSYM    DATA     BYTE      P3
L251 LINKER/LOCATER V4.66.93.0                                                        04/24/2024  23:59:23  PAGE 40


      000000A0H   SFRSYM    DATA     BYTE      P2
      00000090H   SFRSYM    DATA     BYTE      P1
      00000080H   SFRSYM    DATA     BYTE      P0

      00FF9156H   BLOCK     CODE     ---       LVL=0
      REG=0       REGSYM    ---      ---       array_name
      WR8         REGSYM    ---      WORD      array_num
      00FF9158H   BLOCK     CODE     NEAR LAB  LVL=1
      WR6         REGSYM    ---      WORD      i
      ---         BLOCKEND  ---      ---       LVL=1
      00FF9156H   LINE      CODE     ---       #257
      00FF9158H   LINE      CODE     ---       #258
      00FF9158H   LINE      CODE     ---       #259
      00FF9158H   LINE      CODE     ---       #260
      00FF915CH   LINE      CODE     ---       #262
      00FF9164H   LINE      CODE     ---       #263
      00FF916AH   LINE      CODE     ---       #264
      ---         BLOCKEND  ---      ---       LVL=0

      00FF8FB3H   BLOCK     CODE     ---       LVL=0
      REG=2       REGSYM    ---      ---       array_name
      WR30        REGSYM    ---      WORD      array_num
      00FF8FB7H   BLOCK     CODE     NEAR LAB  LVL=1
      WR28        REGSYM    ---      WORD      i
      ---         BLOCKEND  ---      ---       LVL=1
      00FF8FB3H   LINE      CODE     ---       #266
      00FF8FB7H   LINE      CODE     ---       #267
      00FF8FB7H   LINE      CODE     ---       #268
      00FF8FB7H   LINE      CODE     ---       #269
      00FF8FBBH   LINE      CODE     ---       #271
      00FF8FC8H   LINE      CODE     ---       #272
      00FF8FCEH   LINE      CODE     ---       #273
      ---         BLOCKEND  ---      ---       LVL=0

      00FF8768H   BLOCK     CODE     ---       LVL=0
      00FF8768H   LINE      CODE     ---       #276
      00FF8768H   LINE      CODE     ---       #278
      00FF8773H   LINE      CODE     ---       #279
      00FF877EH   LINE      CODE     ---       #280
      00FF878DH   LINE      CODE     ---       #281
      00FF879CH   LINE      CODE     ---       #282
      ---         BLOCKEND  ---      ---       LVL=0

      00FF8EDFH   BLOCK     CODE     ---       LVL=0
      REG=0       REGSYM    ---      ---       array_name
      WR30        REGSYM    ---      WORD      array_num
      WR8         REGSYM    ---      WORD      array_dat
      R11         REGSYM    ---      BYTE      w
      00FF8EE3H   BLOCK     CODE     NEAR LAB  LVL=1
      R7          REGSYM    ---      BYTE      j
      ---         BLOCKEND  ---      ---       LVL=1
      00FF8EDFH   LINE      CODE     ---       #291
      00FF8EE3H   LINE      CODE     ---       #292
      00FF8EE3H   LINE      CODE     ---       #293
      00FF8EE3H   LINE      CODE     ---       #294
      00FF8EE7H   LINE      CODE     ---       #295
      00FF8EEBH   LINE      CODE     ---       #297
      00FF8EF6H   LINE      CODE     ---       #298
      00FF8EFEH   LINE      CODE     ---       #299
      ---         BLOCKEND  ---      ---       LVL=0

      00FF86E0H   BLOCK     CODE     ---       LVL=0
      R5          REGSYM    ---      BYTE      i
      R6          REGSYM    ---      BYTE      b
      R7          REGSYM    ---      BYTE      a
L251 LINKER/LOCATER V4.66.93.0                                                        04/24/2024  23:59:23  PAGE 41


      00FF86E0H   LINE      CODE     ---       #301
      00FF86E0H   LINE      CODE     ---       #302
      00FF86E0H   LINE      CODE     ---       #303
      00FF86E0H   LINE      CODE     ---       #304
      00FF86E2H   LINE      CODE     ---       #305
      00FF86E4H   LINE      CODE     ---       #306
      00FF86E7H   LINE      CODE     ---       #308
      00FF86F3H   LINE      CODE     ---       #310
      00FF86F5H   LINE      CODE     ---       #311
      00FF86F8H   LINE      CODE     ---       #312
      00FF8703H   LINE      CODE     ---       #315
      00FF870BH   LINE      CODE     ---       #317
      00FF8717H   LINE      CODE     ---       #319
      00FF8719H   LINE      CODE     ---       #320
      00FF871CH   LINE      CODE     ---       #321
      00FF8722H   LINE      CODE     ---       #323
      00FF8724H   LINE      CODE     ---       #325
      ---         BLOCKEND  ---      ---       LVL=0

      00FF8725H   BLOCK     CODE     ---       LVL=0
      R15         REGSYM    ---      BYTE      p
      00FF8729H   BLOCK     CODE     NEAR LAB  LVL=1
      R7          REGSYM    ---      BYTE      j
      R6          REGSYM    ---      BYTE      h
      ---         BLOCKEND  ---      ---       LVL=1
      00FF8725H   LINE      CODE     ---       #328
      00FF8729H   LINE      CODE     ---       #329
      00FF8729H   LINE      CODE     ---       #330
      00FF8729H   LINE      CODE     ---       #331
      00FF8729H   LINE      CODE     ---       #332
      00FF872EH   LINE      CODE     ---       #333
      00FF8732H   LINE      CODE     ---       #335
      00FF8746H   LINE      CODE     ---       #336
      00FF874EH   LINE      CODE     ---       #337
      00FF8754H   LINE      CODE     ---       #338
      00FF8761H   LINE      CODE     ---       #339
      00FF8765H   LINE      CODE     ---       #340
      ---         BLOCKEND  ---      ---       LVL=0
      R7          REGSYM    ---      BYTE      j

      00FF901FH   BLOCK     CODE     ---       LVL=0
      WR12        REGSYM    ---      WORD      time
      WR14        REGSYM    ---      WORD      num
      00FF9025H   BLOCK     CODE     NEAR LAB  LVL=1
      R11         REGSYM    ---      BYTE      j
      ---         BLOCKEND  ---      ---       LVL=1
      00FF901FH   LINE      CODE     ---       #361
      00FF9025H   LINE      CODE     ---       #362
      00FF9025H   LINE      CODE     ---       #363
      00FF9025H   LINE      CODE     ---       #364
      00FF9028H   LINE      CODE     ---       #366
      00FF9031H   LINE      CODE     ---       #367
      00FF9035H   LINE      CODE     ---       #369
      ---         BLOCKEND  ---      ---       LVL=0

      00FF5E46H   BLOCK     CODE     ---       LVL=0
      WR14        REGSYM    ---      WORD      time
      WR12        REGSYM    ---      WORD      num
      R11         REGSYM    ---      BYTE      f
      00FF5E4CH   BLOCK     CODE     NEAR LAB  LVL=1
      000003B0H   SYMBOL    EDATA    BYTE      i
      R7          REGSYM    ---      BYTE      k
      000003B1H   SYMBOL    EDATA    WORD      j
      ---         BLOCKEND  ---      ---       LVL=1
      00FF5E46H   LINE      CODE     ---       #373
L251 LINKER/LOCATER V4.66.93.0                                                        04/24/2024  23:59:23  PAGE 42


      00FF5E4CH   LINE      CODE     ---       #374
      00FF5E4CH   LINE      CODE     ---       #375
      00FF5E4CH   LINE      CODE     ---       #376
      00FF5E4CH   LINE      CODE     ---       #377
      00FF5E52H   LINE      CODE     ---       #378
      00FF5E59H   LINE      CODE     ---       #380
      00FF5E70H   LINE      CODE     ---       #383
      00FF5E7CH   LINE      CODE     ---       #385
      00FF5E83H   LINE      CODE     ---       #387
      00FF5E8FH   LINE      CODE     ---       #388
      00FF5E97H   LINE      CODE     ---       #389
      00FF5EA1H   LINE      CODE     ---       #390
      00FF5EC2H   LINE      CODE     ---       #391
      00FF5ECCH   LINE      CODE     ---       #392
      00FF5EE8H   LINE      CODE     ---       #393
      00FF5EE8H   LINE      CODE     ---       #394
      00FF5EEAH   LINE      CODE     ---       #395
      00FF5F03H   LINE      CODE     ---       #397
      00FF5F18H   LINE      CODE     ---       #398
      00FF5F18H   LINE      CODE     ---       #399
      00FF5F1AH   LINE      CODE     ---       #400
      00FF5F2BH   LINE      CODE     ---       #402
      00FF5F3EH   LINE      CODE     ---       #403
      00FF5F48H   LINE      CODE     ---       #404
      00FF5F4EH   LINE      CODE     ---       #405
      00FF5F63H   LINE      CODE     ---       #407
      ---         BLOCKEND  ---      ---       LVL=0

      00FF79AAH   BLOCK     CODE     ---       LVL=0
      000003ABH   SYMBOL    EDATA    WORD      dat
      WR12        REGSYM    ---      WORD      task
      R15         REGSYM    ---      BYTE      num
      00FF79B4H   BLOCK     CODE     NEAR LAB  LVL=1
      R14         REGSYM    ---      BYTE      a
      000003ADH   SYMBOL    EDATA    BYTE      i
      000003AEH   SYMBOL    EDATA    WORD      j
      ---         BLOCKEND  ---      ---       LVL=1
      00FF79AAH   LINE      CODE     ---       #410
      00FF79B4H   LINE      CODE     ---       #411
      00FF79B4H   LINE      CODE     ---       #412
      00FF79B4H   LINE      CODE     ---       #413
      00FF79B9H   LINE      CODE     ---       #414
      00FF79BFH   LINE      CODE     ---       #415
      00FF79C4H   LINE      CODE     ---       #416
      00FF79C8H   LINE      CODE     ---       #418
      00FF79D6H   LINE      CODE     ---       #419
      00FF79E2H   LINE      CODE     ---       #420
      00FF79E4H   LINE      CODE     ---       #423
      00FF79F3H   LINE      CODE     ---       #424
      00FF7A00H   LINE      CODE     ---       #425
      00FF7A03H   LINE      CODE     ---       #427
      00FF7A18H   LINE      CODE     ---       #428
      00FF7A25H   LINE      CODE     ---       #429
      00FF7A34H   LINE      CODE     ---       #430
      00FF7A34H   LINE      CODE     ---       #431
      00FF7A3DH   LINE      CODE     ---       #432
      ---         BLOCKEND  ---      ---       LVL=0
      R15         REGSYM    ---      BYTE      i

      00FF6C01H   BLOCK     CODE     ---       LVL=0
      WR4         REGSYM    ---      WORD      dat
      WR6         REGSYM    ---      WORD      k
      00FF6C01H   LINE      CODE     ---       #443
      00FF6C01H   LINE      CODE     ---       #444
      00FF6C01H   LINE      CODE     ---       #445
L251 LINKER/LOCATER V4.66.93.0                                                        04/24/2024  23:59:23  PAGE 43


      00FF6C03H   LINE      CODE     ---       #446
      00FF6C14H   LINE      CODE     ---       #447
      00FF6C18H   LINE      CODE     ---       #448
      00FF6C74H   LINE      CODE     ---       #450
      00FF6C74H   LINE      CODE     ---       #451
      00FF6C74H   LINE      CODE     ---       #452
      00FF6C76H   LINE      CODE     ---       #453
      00FF6C76H   LINE      CODE     ---       #454
      00FF6C7AH   LINE      CODE     ---       #455
      00FF6C7BH   LINE      CODE     ---       #456
      00FF6C7BH   LINE      CODE     ---       #457
      00FF6C7FH   LINE      CODE     ---       #458
      00FF6C80H   LINE      CODE     ---       #459
      00FF6C80H   LINE      CODE     ---       #460
      00FF6C80H   LINE      CODE     ---       #461
      00FF6C82H   LINE      CODE     ---       #462
      00FF6C82H   LINE      CODE     ---       #463
      00FF6C86H   LINE      CODE     ---       #464
      00FF6C87H   LINE      CODE     ---       #465
      00FF6C87H   LINE      CODE     ---       #466
      00FF6C8BH   LINE      CODE     ---       #467
      00FF6C8CH   LINE      CODE     ---       #468
      00FF6C8CH   LINE      CODE     ---       #469
      00FF6C8CH   LINE      CODE     ---       #470
      00FF6C8EH   LINE      CODE     ---       #471
      00FF6C8EH   LINE      CODE     ---       #472
      00FF6C92H   LINE      CODE     ---       #473
      00FF6C93H   LINE      CODE     ---       #474
      00FF6C93H   LINE      CODE     ---       #475
      00FF6C97H   LINE      CODE     ---       #476
      00FF6C98H   LINE      CODE     ---       #477
      00FF6C98H   LINE      CODE     ---       #478
      00FF6C9CH   LINE      CODE     ---       #479
      00FF6C9DH   LINE      CODE     ---       #480
      00FF6C9DH   LINE      CODE     ---       #481
      00FF6CA1H   LINE      CODE     ---       #482
      00FF6CA2H   LINE      CODE     ---       #483
      00FF6CA2H   LINE      CODE     ---       #484
      00FF6CA6H   LINE      CODE     ---       #485
      00FF6CA7H   LINE      CODE     ---       #486
      00FF6CA7H   LINE      CODE     ---       #487
      00FF6CA7H   LINE      CODE     ---       #488
      00FF6CA9H   LINE      CODE     ---       #489
      00FF6CA9H   LINE      CODE     ---       #490
      00FF6CADH   LINE      CODE     ---       #491
      00FF6CAEH   LINE      CODE     ---       #492
      00FF6CAEH   LINE      CODE     ---       #493
      00FF6CB2H   LINE      CODE     ---       #494
      00FF6CB3H   LINE      CODE     ---       #495
      00FF6CB3H   LINE      CODE     ---       #496
      00FF6CB7H   LINE      CODE     ---       #497
      00FF6CB8H   LINE      CODE     ---       #498
      00FF6CB8H   LINE      CODE     ---       #499
      00FF6CBCH   LINE      CODE     ---       #500
      00FF6CBDH   LINE      CODE     ---       #501
      00FF6CBDH   LINE      CODE     ---       #502
      00FF6CC1H   LINE      CODE     ---       #503
      00FF6CC2H   LINE      CODE     ---       #504
      00FF6CC2H   LINE      CODE     ---       #505
      00FF6CC6H   LINE      CODE     ---       #506
      00FF6CC7H   LINE      CODE     ---       #507
      00FF6CC7H   LINE      CODE     ---       #508
      00FF6CCBH   LINE      CODE     ---       #509
      00FF6CCCH   LINE      CODE     ---       #510
      00FF6CCCH   LINE      CODE     ---       #511
L251 LINKER/LOCATER V4.66.93.0                                                        04/24/2024  23:59:23  PAGE 44


      00FF6CD0H   LINE      CODE     ---       #512
      00FF6CD1H   LINE      CODE     ---       #513
      00FF6CD1H   LINE      CODE     ---       #514
      00FF6CD3H   LINE      CODE     ---       #515
      00FF6CD4H   LINE      CODE     ---       #516
      00FF6CD4H   LINE      CODE     ---       #517
      00FF6CD6H   LINE      CODE     ---       #518
      00FF6CD6H   LINE      CODE     ---       #520
      00FF6CD6H   LINE      CODE     ---       #521
      00FF6CD6H   LINE      CODE     ---       #522
      ---         BLOCKEND  ---      ---       LVL=0

      00FF80C6H   BLOCK     CODE     ---       LVL=0
      WR2         REGSYM    ---      WORD      dat
      00FF80C8H   BLOCK     CODE     NEAR LAB  LVL=1
      WR6         REGSYM    ---      WORD      k
      ---         BLOCKEND  ---      ---       LVL=1
      00FF80C6H   LINE      CODE     ---       #524
      00FF80C8H   LINE      CODE     ---       #525
      00FF80C8H   LINE      CODE     ---       #526
      00FF80CAH   LINE      CODE     ---       #527
      00FF80DBH   LINE      CODE     ---       #528
      00FF80DFH   LINE      CODE     ---       #531
      00FF812FH   LINE      CODE     ---       #533
      00FF8133H   LINE      CODE     ---       #534
      00FF8133H   LINE      CODE     ---       #535
      00FF8133H   LINE      CODE     ---       #537
      ---         BLOCKEND  ---      ---       LVL=0

      00FF7735H   BLOCK     CODE     ---       LVL=0
      WR14        REGSYM    ---      WORD      address
      WR4         REGSYM    ---      WORD      add
      00FF7735H   LINE      CODE     ---       #539
      00FF7739H   LINE      CODE     ---       #541
      00FF773DH   LINE      CODE     ---       #543
      00FF775BH   LINE      CODE     ---       #545
      00FF7760H   LINE      CODE     ---       #546
      00FF7762H   LINE      CODE     ---       #549
      00FF7773H   LINE      CODE     ---       #550
      00FF7773H   LINE      CODE     ---       #551
      00FF7775H   LINE      CODE     ---       #554
      00FF7793H   LINE      CODE     ---       #556
      00FF77ABH   LINE      CODE     ---       #557
      00FF77ADH   LINE      CODE     ---       #560
      00FF77C7H   LINE      CODE     ---       #561
      00FF77C7H   LINE      CODE     ---       #563
      00FF77C7H   LINE      CODE     ---       #564
      00FF77D6H   LINE      CODE     ---       #565
      ---         BLOCKEND  ---      ---       LVL=0

      00FF923EH   BLOCK     CODE     ---       LVL=0
      WR6         REGSYM    ---      WORD      dat
      00FF923EH   LINE      CODE     ---       #571
      00FF923EH   LINE      CODE     ---       #572
      00FF923EH   LINE      CODE     ---       #573
      00FF923EH   LINE      CODE     ---       #574
      00FF924EH   LINE      CODE     ---       #575
      00FF924EH   LINE      CODE     ---       #576
      ---         BLOCKEND  ---      ---       LVL=0

      00FF91E3H   BLOCK     CODE     ---       LVL=0
      00FF91E3H   LINE      CODE     ---       #578
      00FF91E3H   LINE      CODE     ---       #580
      00FF91F5H   LINE      CODE     ---       #581
      ---         BLOCKEND  ---      ---       LVL=0
L251 LINKER/LOCATER V4.66.93.0                                                        04/24/2024  23:59:23  PAGE 45



      00FF91D0H   BLOCK     CODE     ---       LVL=0
      00FF91D0H   LINE      CODE     ---       #584
      00FF91D0H   LINE      CODE     ---       #586
      00FF91E2H   LINE      CODE     ---       #587
      ---         BLOCKEND  ---      ---       LVL=0

      00FF922DH   BLOCK     CODE     ---       LVL=0
      00FF922DH   LINE      CODE     ---       #589
      00FF922FH   LINE      CODE     ---       #591
      00FF923BH   LINE      CODE     ---       #592
      ---         BLOCKEND  ---      ---       LVL=0

      00FF7EF9H   BLOCK     CODE     ---       LVL=0
      00FF7EF9H   LINE      CODE     ---       #597
      00FF7EFBH   LINE      CODE     ---       #599
      00FF7F02H   LINE      CODE     ---       #601
      00FF7F12H   LINE      CODE     ---       #602
      00FF7F17H   LINE      CODE     ---       #603
      00FF7F17H   LINE      CODE     ---       #604
      00FF7F1EH   LINE      CODE     ---       #606
      00FF7F3BH   LINE      CODE     ---       #607
      00FF7F40H   LINE      CODE     ---       #608
      00FF7F40H   LINE      CODE     ---       #609
      00FF7F47H   LINE      CODE     ---       #611
      00FF7F4AH   LINE      CODE     ---       #612
      00FF7F55H   LINE      CODE     ---       #613
      00FF7F5AH   LINE      CODE     ---       #614
      00FF7F5AH   LINE      CODE     ---       #615
      00FF7F61H   LINE      CODE     ---       #617
      00FF7F64H   LINE      CODE     ---       #619
      00FF7F67H   LINE      CODE     ---       #620
      00FF7F6CH   LINE      CODE     ---       #621
      ---         BLOCKEND  ---      ---       LVL=0

      00FF8FEBH   BLOCK     CODE     ---       LVL=0
      R10         REGSYM    ---      BYTE      a
      00FF8FEBH   LINE      CODE     ---       #634
      00FF8FEBH   LINE      CODE     ---       #636
      00FF9005H   LINE      CODE     ---       #637
      00FF9005H   LINE      CODE     ---       #638
      ---         BLOCKEND  ---      ---       LVL=0

      00FF9006H   BLOCK     CODE     ---       LVL=0
      WR10        REGSYM    ---      WORD      a
      00FF9006H   LINE      CODE     ---       #641
      00FF9006H   LINE      CODE     ---       #643
      00FF901EH   LINE      CODE     ---       #644
      00FF901EH   LINE      CODE     ---       #645
      ---         BLOCKEND  ---      ---       LVL=0

      00FF91F6H   BLOCK     CODE     ---       LVL=0
      R6          REGSYM    ---      BYTE      a
      00FF91F8H   BLOCK     CODE     NEAR LAB  LVL=1
      R11         REGSYM    ---      BYTE      i
      R7          REGSYM    ---      BYTE      b
      ---         BLOCKEND  ---      ---       LVL=1
      00FF91F6H   LINE      CODE     ---       #647
      00FF91F8H   LINE      CODE     ---       #648
      00FF91F8H   LINE      CODE     ---       #649
      00FF91F8H   LINE      CODE     ---       #650
      00FF91FBH   LINE      CODE     ---       #651
      00FF91FCH   LINE      CODE     ---       #653
      00FF9200H   LINE      CODE     ---       #654
      00FF9202H   LINE      CODE     ---       #655
L251 LINKER/LOCATER V4.66.93.0                                                        04/24/2024  23:59:23  PAGE 46


      00FF9208H   LINE      CODE     ---       #657
      00FF9208H   LINE      CODE     ---       #658
      ---         BLOCKEND  ---      ---       LVL=0

      00FF9194H   BLOCK     CODE     ---       LVL=0
      WR4         REGSYM    ---      WORD      a
      00FF9196H   BLOCK     CODE     NEAR LAB  LVL=1
      R11         REGSYM    ---      BYTE      i
      R10         REGSYM    ---      BYTE      b
      ---         BLOCKEND  ---      ---       LVL=1
      00FF9194H   LINE      CODE     ---       #660
      00FF9196H   LINE      CODE     ---       #661
      00FF9196H   LINE      CODE     ---       #662
      00FF9196H   LINE      CODE     ---       #663
      00FF9199H   LINE      CODE     ---       #665
      00FF919CH   LINE      CODE     ---       #667
      00FF919EH   LINE      CODE     ---       #668
      00FF91A5H   LINE      CODE     ---       #670
      00FF91A7H   LINE      CODE     ---       #671
      ---         BLOCKEND  ---      ---       LVL=0

      00FF7AD6H   BLOCK     CODE     ---       LVL=0
      R7          REGSYM    ---      BYTE      i
      00FF7AD6H   LINE      CODE     ---       #677
      00FF7AD6H   LINE      CODE     ---       #678
      00FF7AD6H   LINE      CODE     ---       #679
      00FF7AD6H   LINE      CODE     ---       #680
      00FF7AE5H   LINE      CODE     ---       #681
      00FF7AF4H   LINE      CODE     ---       #682
      00FF7B03H   LINE      CODE     ---       #683
      00FF7B12H   LINE      CODE     ---       #684
      00FF7B21H   LINE      CODE     ---       #685
      00FF7B30H   LINE      CODE     ---       #686
      00FF7B3FH   LINE      CODE     ---       #687
      00FF7B41H   LINE      CODE     ---       #689
      00FF7B62H   LINE      CODE     ---       #690
      00FF7B69H   LINE      CODE     ---       #691
      ---         BLOCKEND  ---      ---       LVL=0

      00FF8329H   BLOCK     CODE     ---       LVL=0
      00FF8329H   LINE      CODE     ---       #694
      00FF8329H   LINE      CODE     ---       #696
      00FF8336H   LINE      CODE     ---       #697
      00FF8343H   LINE      CODE     ---       #698
      00FF8350H   LINE      CODE     ---       #699
      00FF835DH   LINE      CODE     ---       #700
      00FF836AH   LINE      CODE     ---       #701
      00FF8377H   LINE      CODE     ---       #702
      00FF8384H   LINE      CODE     ---       #704
      ---         BLOCKEND  ---      ---       LVL=0
      WR0         REGSYM    ---      WORD      a
      WR4         REGSYM    ---      WORD      b
      WR2         REGSYM    ---      WORD      c
      WR2         REGSYM    ---      WORD      a
      WR4         REGSYM    ---      WORD      b

      00FF6A3BH   BLOCK     CODE     ---       LVL=0
      R2          REGSYM    ---      BYTE      a
      00FF6A3DH   BLOCK     CODE     NEAR LAB  LVL=1
      DR28        REGSYM    ---      DWORD     dat
      R6          REGSYM    ---      BYTE      b
      R7          REGSYM    ---      BYTE      c
      ---         BLOCKEND  ---      ---       LVL=1
      00FF6A3BH   LINE      CODE     ---       #737
      00FF6A3DH   LINE      CODE     ---       #738
L251 LINKER/LOCATER V4.66.93.0                                                        04/24/2024  23:59:23  PAGE 47


      00FF6A3DH   LINE      CODE     ---       #739
      00FF6A3DH   LINE      CODE     ---       #740
      00FF6A3DH   LINE      CODE     ---       #741
      00FF6A3DH   LINE      CODE     ---       #744
      00FF6A45H   LINE      CODE     ---       #746
      00FF6A4CH   LINE      CODE     ---       #747
      00FF6A54H   LINE      CODE     ---       #749
      00FF6A5BH   LINE      CODE     ---       #750
      00FF6A63H   LINE      CODE     ---       #752
      00FF6A6AH   LINE      CODE     ---       #753
      00FF6A72H   LINE      CODE     ---       #755
      00FF6A79H   LINE      CODE     ---       #756
      00FF6A81H   LINE      CODE     ---       #758
      00FF6A87H   LINE      CODE     ---       #759
      00FF6A8FH   LINE      CODE     ---       #761
      00FF6A95H   LINE      CODE     ---       #762
      00FF6A9DH   LINE      CODE     ---       #764
      00FF6AA3H   LINE      CODE     ---       #765
      00FF6AABH   LINE      CODE     ---       #767
      00FF6AB7H   LINE      CODE     ---       #770
      00FF6AC5H   LINE      CODE     ---       #771
      00FF6AD1H   LINE      CODE     ---       #772
      00FF6AD1H   LINE      CODE     ---       #773
      00FF6ADEH   LINE      CODE     ---       #774
      00FF6AE6H   LINE      CODE     ---       #775
      00FF6B01H   LINE      CODE     ---       #776
      00FF6B12H   LINE      CODE     ---       #777
      00FF6B24H   LINE      CODE     ---       #780
      ---         BLOCKEND  ---      ---       LVL=0

      00FF607CH   BLOCK     CODE     ---       LVL=0
      R3          REGSYM    ---      BYTE      a
      00FF607EH   BLOCK     CODE     NEAR LAB  LVL=1
      DR4         REGSYM    ---      DWORD     dat
      R2          REGSYM    ---      BYTE      b
      R3          REGSYM    ---      BYTE      c
      ---         BLOCKEND  ---      ---       LVL=1
      00FF607CH   LINE      CODE     ---       #784
      00FF607EH   LINE      CODE     ---       #785
      00FF607EH   LINE      CODE     ---       #786
      00FF607EH   LINE      CODE     ---       #787
      00FF607EH   LINE      CODE     ---       #788
      00FF607EH   LINE      CODE     ---       #791
      00FF608AH   LINE      CODE     ---       #795
      00FF6096H   LINE      CODE     ---       #796
      00FF609FH   LINE      CODE     ---       #798
      00FF60ABH   LINE      CODE     ---       #799
      00FF60B4H   LINE      CODE     ---       #802
      00FF60C0H   LINE      CODE     ---       #803
      00FF60C9H   LINE      CODE     ---       #806
      00FF60D5H   LINE      CODE     ---       #807
      00FF60E3H   LINE      CODE     ---       #809
      00FF60EFH   LINE      CODE     ---       #810
      00FF60FDH   LINE      CODE     ---       #813
      00FF6109H   LINE      CODE     ---       #814
      00FF6117H   LINE      CODE     ---       #817
      00FF6123H   LINE      CODE     ---       #818
      00FF6131H   LINE      CODE     ---       #821
      00FF613BH   LINE      CODE     ---       #824
      00FF6149H   LINE      CODE     ---       #825
      00FF6155H   LINE      CODE     ---       #826
      00FF6155H   LINE      CODE     ---       #827
      00FF6162H   LINE      CODE     ---       #828
      00FF6173H   LINE      CODE     ---       #829
      00FF6183H   LINE      CODE     ---       #830
L251 LINKER/LOCATER V4.66.93.0                                                        04/24/2024  23:59:23  PAGE 48


      00FF6189H   LINE      CODE     ---       #833
      ---         BLOCKEND  ---      ---       LVL=0

      ---         MODULE    ---      ---       flag
      00FF8CB9H   PUBLIC    CODE     ---       flag_handle
      000000D0H   SFRSYM    DATA     BYTE      PSW
      0000009DH   SFRSYM    DATA     BYTE      IRCBAND
      00000097H   SFRSYM    DATA     BYTE      AUXR2
      000000EFH   SFRSYM    DATA     BYTE      AUXINTIF
      000000FDH   SFRSYM    DATA     BYTE      S4CON
      000000ACH   SFRSYM    DATA     BYTE      S3CON
      0000009AH   SFRSYM    DATA     BYTE      S2CON
      000000B7H   SFRSYM    DATA     BYTE      IPH
      000000CDH   SFRSYM    DATA     BYTE      SPSTAT
      000000DDH   SFRSYM    DATA     BYTE      T4T3M
      000000C1H   SFRSYM    DATA     BYTE      WDT_CONTR
      000000DFH   SFRSYM    DATA     BYTE      IP3
      000000F4H   SFRSYM    DATA     BYTE      USBCON
      000000B5H   SFRSYM    DATA     BYTE      IP2
      000000FFH   SFRSYM    DATA     BYTE      RSTCFG
      000000C7H   SFRSYM    DATA     BYTE      IAP_CONTR
      000000F9H   SFRSYM    DATA     BYTE      LINICR
      0000008EH   SFRSYM    DATA     BYTE      AUXR
      000000AFH   SFRSYM    DATA     BYTE      IE2
      00000088H   SFRSYM    DATA     BYTE      TCON
      00000089H   SFRSYM    DATA     BYTE      TMOD
      00000098H   SFRSYM    DATA     BYTE      SCON
      000000F1H   SFRSYM    DATA     BYTE      CANICR
      00000087H   SFRSYM    DATA     BYTE      PCON
      000000BCH   SFRSYM    DATA     BYTE      ADC_CONTR
      000000E7H   SFRSYM    DATA     BYTE      CMPCR2
      000000E6H   SFRSYM    DATA     BYTE      CMPCR1
      000000DEH   SFRSYM    DATA     BYTE      ADCCFG
      000000B8H   SFRSYM    DATA     BYTE      IP
      0000008FH   SFRSYM    DATA     BYTE      INTCLKO
      000000EEH   SFRSYM    DATA     BYTE      IP3H
      000000B6H   SFRSYM    DATA     BYTE      IP2H
      000000A8H   SFRSYM    DATA     BYTE      IE
      000000BBH   SFRSYM    DATA     BYTE      P_SW3
      000000BAH   SFRSYM    DATA     BYTE      P_SW2
      000000A2H   SFRSYM    DATA     BYTE      P_SW1
      000000CEH   SFRSYM    DATA     BYTE      SPCTL
      000000F8H   SFRSYM    DATA     BYTE      P7
      000000E8H   SFRSYM    DATA     BYTE      P6
      000000C8H   SFRSYM    DATA     BYTE      P5
      000000C0H   SFRSYM    DATA     BYTE      P4
      000000B0H   SFRSYM    DATA     BYTE      P3
      000000A0H   SFRSYM    DATA     BYTE      P2
      00000090H   SFRSYM    DATA     BYTE      P1
      00000080H   SFRSYM    DATA     BYTE      P0

      00FF8CB9H   BLOCK     CODE     ---       LVL=0
      00FF8CB9H   LINE      CODE     ---       #12
      00FF8CB9H   LINE      CODE     ---       #14
      00FF8CBFH   LINE      CODE     ---       #16
      00FF8CC4H   LINE      CODE     ---       #17
      00FF8CCDH   LINE      CODE     ---       #18
      00FF8CD2H   LINE      CODE     ---       #19
      00FF8CD2H   LINE      CODE     ---       #20
      00FF8CD8H   LINE      CODE     ---       #23
      00FF8CE1H   LINE      CODE     ---       #24
      00FF8CE6H   LINE      CODE     ---       #25
      ---         BLOCKEND  ---      ---       LVL=0

      ---         MODULE    ---      ---       IIC
L251 LINKER/LOCATER V4.66.93.0                                                        04/24/2024  23:59:23  PAGE 49


      00FF8E0CH   PUBLIC    CODE     ---       IIC_W1bit
      00FF8A55H   PUBLIC    CODE     ---       IIC_W2bit
      00FF9038H   PUBLIC    CODE     ---       IIC_int
      00FF90FCH   PUBLIC    CODE     ---       SendData
      00FF8FCFH   PUBLIC    CODE     ---       RecvData
      00FF924FH   PUBLIC    CODE     ---       Start
      00FF8654H   PUBLIC    CODE     ---       Wait
      00FF925FH   PUBLIC    CODE     ---       Stop
      00FF909CH   PUBLIC    CODE     ---       SendACK
      00FF926FH   PUBLIC    CODE     ---       RecvACK
      00FF9051H   PUBLIC    CODE     ---       SendNAK
      00FF89B3H   PUBLIC    CODE     ---       IIC_R1bit
      000000D0H   SFRSYM    DATA     BYTE      PSW
      0000009DH   SFRSYM    DATA     BYTE      IRCBAND
      00000097H   SFRSYM    DATA     BYTE      AUXR2
      000000EFH   SFRSYM    DATA     BYTE      AUXINTIF
      000000FDH   SFRSYM    DATA     BYTE      S4CON
      000000ACH   SFRSYM    DATA     BYTE      S3CON
      0000009AH   SFRSYM    DATA     BYTE      S2CON
      000000B7H   SFRSYM    DATA     BYTE      IPH
      000000CDH   SFRSYM    DATA     BYTE      SPSTAT
      000000DDH   SFRSYM    DATA     BYTE      T4T3M
      000000C1H   SFRSYM    DATA     BYTE      WDT_CONTR
      000000DFH   SFRSYM    DATA     BYTE      IP3
      000000F4H   SFRSYM    DATA     BYTE      USBCON
      000000B5H   SFRSYM    DATA     BYTE      IP2
      000000FFH   SFRSYM    DATA     BYTE      RSTCFG
      000000C7H   SFRSYM    DATA     BYTE      IAP_CONTR
      000000F9H   SFRSYM    DATA     BYTE      LINICR
      0000008EH   SFRSYM    DATA     BYTE      AUXR
      000000AFH   SFRSYM    DATA     BYTE      IE2
      00000088H   SFRSYM    DATA     BYTE      TCON
      00000089H   SFRSYM    DATA     BYTE      TMOD
      00000098H   SFRSYM    DATA     BYTE      SCON
      000000F1H   SFRSYM    DATA     BYTE      CANICR
      00000087H   SFRSYM    DATA     BYTE      PCON
      000000BCH   SFRSYM    DATA     BYTE      ADC_CONTR
      000000E7H   SFRSYM    DATA     BYTE      CMPCR2
      000000E6H   SFRSYM    DATA     BYTE      CMPCR1
      000000DEH   SFRSYM    DATA     BYTE      ADCCFG
      000000B8H   SFRSYM    DATA     BYTE      IP
      0000008FH   SFRSYM    DATA     BYTE      INTCLKO
      000000EEH   SFRSYM    DATA     BYTE      IP3H
      000000B6H   SFRSYM    DATA     BYTE      IP2H
      000000A8H   SFRSYM    DATA     BYTE      IE
      000000BBH   SFRSYM    DATA     BYTE      P_SW3
      000000BAH   SFRSYM    DATA     BYTE      P_SW2
      000000A2H   SFRSYM    DATA     BYTE      P_SW1
      000000CEH   SFRSYM    DATA     BYTE      SPCTL
      000000F8H   SFRSYM    DATA     BYTE      P7
      000000E8H   SFRSYM    DATA     BYTE      P6
      000000C8H   SFRSYM    DATA     BYTE      P5
      000000C0H   SFRSYM    DATA     BYTE      P4
      000000B0H   SFRSYM    DATA     BYTE      P3
      000000A0H   SFRSYM    DATA     BYTE      P2
      00000090H   SFRSYM    DATA     BYTE      P1
      00000080H   SFRSYM    DATA     BYTE      P0

      00FF9038H   BLOCK     CODE     ---       LVL=0
      00FF9038H   LINE      CODE     ---       #3
      00FF9038H   LINE      CODE     ---       #5
      00FF903BH   LINE      CODE     ---       #6
      00FF9048H   LINE      CODE     ---       #7
      00FF9050H   LINE      CODE     ---       #9
      ---         BLOCKEND  ---      ---       LVL=0
L251 LINKER/LOCATER V4.66.93.0                                                        04/24/2024  23:59:23  PAGE 50



      00FF8654H   BLOCK     CODE     ---       LVL=0
      R10         REGSYM    ---      BYTE      k
      WR8         REGSYM    ---      WORD      i
      00FF8654H   LINE      CODE     ---       #11
      00FF8654H   LINE      CODE     ---       #12
      00FF8654H   LINE      CODE     ---       #13
      00FF8656H   LINE      CODE     ---       #14
      00FF865AH   LINE      CODE     ---       #15
      00FF865CH   LINE      CODE     ---       #17
      00FF865EH   LINE      CODE     ---       #18
      00FF8686H   LINE      CODE     ---       #19
      00FF868CH   LINE      CODE     ---       #21
      00FF868FH   LINE      CODE     ---       #22
      00FF868FH   LINE      CODE     ---       #23
      00FF8697H   LINE      CODE     ---       #24
      00FF8699H   LINE      CODE     ---       #25
      ---         BLOCKEND  ---      ---       LVL=0

      00FF924FH   BLOCK     CODE     ---       LVL=0
      00FF924FH   LINE      CODE     ---       #27
      00FF924FH   LINE      CODE     ---       #29
      00FF925CH   LINE      CODE     ---       #30
      ---         BLOCKEND  ---      ---       LVL=0

      00FF90FCH   BLOCK     CODE     ---       LVL=0
      R3          REGSYM    ---      CHAR      dat
      00FF90FCH   LINE      CODE     ---       #33
      00FF90FCH   LINE      CODE     ---       #35
      00FF9107H   LINE      CODE     ---       #36
      00FF9110H   LINE      CODE     ---       #37
      ---         BLOCKEND  ---      ---       LVL=0

      00FF926FH   BLOCK     CODE     ---       LVL=0
      R11         REGSYM    ---      BYTE      p
      00FF926FH   LINE      CODE     ---       #40
      00FF926FH   LINE      CODE     ---       #41
      00FF926FH   LINE      CODE     ---       #42
      00FF926FH   LINE      CODE     ---       #43
      00FF927CH   LINE      CODE     ---       #44
      00FF927FH   LINE      CODE     ---       #45
      00FF927FH   LINE      CODE     ---       #46
      ---         BLOCKEND  ---      ---       LVL=0

      00FF8FCFH   BLOCK     CODE     ---       LVL=0
      00FF8FCFH   LINE      CODE     ---       #48
      00FF8FCFH   LINE      CODE     ---       #50
      00FF8FDCH   LINE      CODE     ---       #51
      00FF8FDFH   LINE      CODE     ---       #52
      00FF8FEAH   LINE      CODE     ---       #53
      ---         BLOCKEND  ---      ---       LVL=0

      00FF909CH   BLOCK     CODE     ---       LVL=0
      00FF909CH   LINE      CODE     ---       #55
      00FF909CH   LINE      CODE     ---       #57
      00FF90A8H   LINE      CODE     ---       #58
      00FF90B1H   LINE      CODE     ---       #59
      ---         BLOCKEND  ---      ---       LVL=0

      00FF9051H   BLOCK     CODE     ---       LVL=0
      00FF9051H   LINE      CODE     ---       #62
      00FF9051H   LINE      CODE     ---       #64
      00FF905EH   LINE      CODE     ---       #65
      00FF9067H   LINE      CODE     ---       #66
      ---         BLOCKEND  ---      ---       LVL=0
L251 LINKER/LOCATER V4.66.93.0                                                        04/24/2024  23:59:23  PAGE 51



      00FF925FH   BLOCK     CODE     ---       LVL=0
      00FF925FH   LINE      CODE     ---       #69
      00FF925FH   LINE      CODE     ---       #71
      00FF926CH   LINE      CODE     ---       #72
      ---         BLOCKEND  ---      ---       LVL=0

      00FF8A55H   BLOCK     CODE     ---       LVL=0
      R13         REGSYM    ---      BYTE      addre
      R14         REGSYM    ---      BYTE      MSB
      R15         REGSYM    ---      BYTE      LSB
      00FF8A5FH   BLOCK     CODE     NEAR LAB  LVL=1
      R13         REGSYM    ---      BYTE      ACK
      ---         BLOCKEND  ---      ---       LVL=1
      00FF8A55H   LINE      CODE     ---       #215
      00FF8A5FH   LINE      CODE     ---       #216
      00FF8A5FH   LINE      CODE     ---       #217
      00FF8A5FH   LINE      CODE     ---       #219
      00FF8A62H   LINE      CODE     ---       #220
      00FF8A67H   LINE      CODE     ---       #221
      00FF8A6CH   LINE      CODE     ---       #222
      00FF8A71H   LINE      CODE     ---       #223
      00FF8A76H   LINE      CODE     ---       #224
      00FF8A7BH   LINE      CODE     ---       #225
      00FF8A80H   LINE      CODE     ---       #226
      00FF8A83H   LINE      CODE     ---       #227
      00FF8A85H   LINE      CODE     ---       #228
      ---         BLOCKEND  ---      ---       LVL=0

      00FF8E0CH   BLOCK     CODE     ---       LVL=0
      R14         REGSYM    ---      BYTE      addre
      R15         REGSYM    ---      BYTE      LSB
      00FF8E12H   BLOCK     CODE     NEAR LAB  LVL=1
      R14         REGSYM    ---      BYTE      ACK
      ---         BLOCKEND  ---      ---       LVL=1
      00FF8E0CH   LINE      CODE     ---       #230
      00FF8E12H   LINE      CODE     ---       #231
      00FF8E12H   LINE      CODE     ---       #232
      00FF8E12H   LINE      CODE     ---       #233
      00FF8E15H   LINE      CODE     ---       #234
      00FF8E1AH   LINE      CODE     ---       #235
      00FF8E1FH   LINE      CODE     ---       #236
      00FF8E24H   LINE      CODE     ---       #237
      00FF8E29H   LINE      CODE     ---       #238
      00FF8E2CH   LINE      CODE     ---       #239
      00FF8E2EH   LINE      CODE     ---       #240
      ---         BLOCKEND  ---      ---       LVL=0

      00FF89B3H   BLOCK     CODE     ---       LVL=0
      R15         REGSYM    ---      BYTE      nam
      R14         REGSYM    ---      BYTE      adds
      00FF89B9H   BLOCK     CODE     NEAR LAB  LVL=1
      R15         REGSYM    ---      BYTE      a
      ---         BLOCKEND  ---      ---       LVL=1
      00FF89B3H   LINE      CODE     ---       #243
      00FF89B9H   LINE      CODE     ---       #244
      00FF89B9H   LINE      CODE     ---       #245
      00FF89B9H   LINE      CODE     ---       #246
      00FF89BCH   LINE      CODE     ---       #247
      00FF89C1H   LINE      CODE     ---       #248
      00FF89C4H   LINE      CODE     ---       #249
      00FF89C9H   LINE      CODE     ---       #250
      00FF89CCH   LINE      CODE     ---       #251
      00FF89CFH   LINE      CODE     ---       #252
      00FF89D6H   LINE      CODE     ---       #253
L251 LINKER/LOCATER V4.66.93.0                                                        04/24/2024  23:59:23  PAGE 52


      00FF89D9H   LINE      CODE     ---       #254
      00FF89DEH   LINE      CODE     ---       #255
      00FF89E1H   LINE      CODE     ---       #256
      00FF89E4H   LINE      CODE     ---       #257
      00FF89E6H   LINE      CODE     ---       #259
      ---         BLOCKEND  ---      ---       LVL=0
      R15         REGSYM    ---      BYTE      addre
      R15         REGSYM    ---      BYTE      ACK
      R15         REGSYM    ---      BYTE      ACK

      ---         MODULE    ---      ---       INS5699S
      00FF8578H   PUBLIC    CODE     ---       INS5699_timeR
      00FF869AH   PUBLIC    CODE     ---       INS5699_timeW
      000000D0H   SFRSYM    DATA     BYTE      PSW
      0000009DH   SFRSYM    DATA     BYTE      IRCBAND
      00000097H   SFRSYM    DATA     BYTE      AUXR2
      000000EFH   SFRSYM    DATA     BYTE      AUXINTIF
      000000FDH   SFRSYM    DATA     BYTE      S4CON
      000000ACH   SFRSYM    DATA     BYTE      S3CON
      0000009AH   SFRSYM    DATA     BYTE      S2CON
      000000B7H   SFRSYM    DATA     BYTE      IPH
      000000CDH   SFRSYM    DATA     BYTE      SPSTAT
      000000DDH   SFRSYM    DATA     BYTE      T4T3M
      000000C1H   SFRSYM    DATA     BYTE      WDT_CONTR
      000000DFH   SFRSYM    DATA     BYTE      IP3
      000000F4H   SFRSYM    DATA     BYTE      USBCON
      000000B5H   SFRSYM    DATA     BYTE      IP2
      000000FFH   SFRSYM    DATA     BYTE      RSTCFG
      000000C7H   SFRSYM    DATA     BYTE      IAP_CONTR
      000000F9H   SFRSYM    DATA     BYTE      LINICR
      0000008EH   SFRSYM    DATA     BYTE      AUXR
      000000AFH   SFRSYM    DATA     BYTE      IE2
      00000088H   SFRSYM    DATA     BYTE      TCON
      00000089H   SFRSYM    DATA     BYTE      TMOD
      00000098H   SFRSYM    DATA     BYTE      SCON
      000000F1H   SFRSYM    DATA     BYTE      CANICR
      00000087H   SFRSYM    DATA     BYTE      PCON
      000000BCH   SFRSYM    DATA     BYTE      ADC_CONTR
      000000E7H   SFRSYM    DATA     BYTE      CMPCR2
      000000E6H   SFRSYM    DATA     BYTE      CMPCR1
      000000DEH   SFRSYM    DATA     BYTE      ADCCFG
      000000B8H   SFRSYM    DATA     BYTE      IP
      0000008FH   SFRSYM    DATA     BYTE      INTCLKO
      000000EEH   SFRSYM    DATA     BYTE      IP3H
      000000B6H   SFRSYM    DATA     BYTE      IP2H
      000000A8H   SFRSYM    DATA     BYTE      IE
      000000BBH   SFRSYM    DATA     BYTE      P_SW3
      000000BAH   SFRSYM    DATA     BYTE      P_SW2
      000000A2H   SFRSYM    DATA     BYTE      P_SW1
      000000CEH   SFRSYM    DATA     BYTE      SPCTL
      000000F8H   SFRSYM    DATA     BYTE      P7
      000000E8H   SFRSYM    DATA     BYTE      P6
      000000C8H   SFRSYM    DATA     BYTE      P5
      000000C0H   SFRSYM    DATA     BYTE      P4
      000000B0H   SFRSYM    DATA     BYTE      P3
      000000A0H   SFRSYM    DATA     BYTE      P2
      00000090H   SFRSYM    DATA     BYTE      P1
      00000080H   SFRSYM    DATA     BYTE      P0

      00FF8578H   BLOCK     CODE     ---       LVL=0
      00FF857AH   BLOCK     CODE     NEAR LAB  LVL=1
      R15         REGSYM    ---      BYTE      i
      ---         BLOCKEND  ---      ---       LVL=1
      00FF8578H   LINE      CODE     ---       #12
      00FF857AH   LINE      CODE     ---       #13
L251 LINKER/LOCATER V4.66.93.0                                                        04/24/2024  23:59:23  PAGE 53


      00FF857AH   LINE      CODE     ---       #14
      00FF857AH   LINE      CODE     ---       #15
      00FF857DH   LINE      CODE     ---       #16
      00FF8582H   LINE      CODE     ---       #17
      00FF8585H   LINE      CODE     ---       #18
      00FF8589H   LINE      CODE     ---       #19
      00FF858CH   LINE      CODE     ---       #20
      00FF858FH   LINE      CODE     ---       #21
      00FF8594H   LINE      CODE     ---       #22
      00FF8597H   LINE      CODE     ---       #24
      00FF8599H   LINE      CODE     ---       #26
      00FF85A9H   LINE      CODE     ---       #27
      00FF85AEH   LINE      CODE     ---       #29
      00FF85B1H   LINE      CODE     ---       #30
      00FF85B3H   LINE      CODE     ---       #33
      00FF85B6H   LINE      CODE     ---       #34
      00FF85B6H   LINE      CODE     ---       #35
      00FF85BDH   LINE      CODE     ---       #36
      00FF85C0H   LINE      CODE     ---       #37
      ---         BLOCKEND  ---      ---       LVL=0

      00FF869AH   BLOCK     CODE     ---       LVL=0
      REG=3       REGSYM    ---      ---       a
      00FF869EH   BLOCK     CODE     NEAR LAB  LVL=1
      000003ABH   SYMBOL    EDATA    BYTE      i
      ---         BLOCKEND  ---      ---       LVL=1
      00FF869AH   LINE      CODE     ---       #42
      00FF869EH   LINE      CODE     ---       #43
      00FF869EH   LINE      CODE     ---       #44
      00FF869EH   LINE      CODE     ---       #45
      00FF86A1H   LINE      CODE     ---       #46
      00FF86A6H   LINE      CODE     ---       #47
      00FF86A9H   LINE      CODE     ---       #48
      00FF86ADH   LINE      CODE     ---       #49
      00FF86B0H   LINE      CODE     ---       #50
      00FF86B5H   LINE      CODE     ---       #52
      00FF86C5H   LINE      CODE     ---       #53
      00FF86C8H   LINE      CODE     ---       #54
      00FF86DAH   LINE      CODE     ---       #55
      00FF86DDH   LINE      CODE     ---       #56
      ---         BLOCKEND  ---      ---       LVL=0

      ---         MODULE    ---      ---       IO
      00FF7912H   PUBLIC    CODE     ---       IO_Init
      00FF92AEH   PUBLIC    CODE     ---       Battery_ON_OFF
      00FF906AH   PUBLIC    CODE     ---       Buzzer_falg_0020
      00FF8CE7H   PUBLIC    CODE     ---       Clock_INT
      00FF92B7H   PUBLIC    CODE     ---       Battery_ON_ON
      00FF92C8H   PUBLIC    CODE     ---       Buzzer_Close
      00FF92A4H   PUBLIC    CODE     ---       RESET54
      00FF8204H   PUBLIC    CODE     ---       key_int
      00FF92CFH   PUBLIC    CODE     ---       Buzzer_Open
      00FF90B4H   PUBLIC    CODE     ---       OLED_POW
      00000094H   SFRSYM    DATA     BYTE      P0M0
      000000D0H   SFRSYM    DATA     BYTE      PSW
      0000009DH   SFRSYM    DATA     BYTE      IRCBAND
      00000097H   SFRSYM    DATA     BYTE      AUXR2
      000000EFH   SFRSYM    DATA     BYTE      AUXINTIF
      000000FDH   SFRSYM    DATA     BYTE      S4CON
      000000ACH   SFRSYM    DATA     BYTE      S3CON
      0000009AH   SFRSYM    DATA     BYTE      S2CON
      000000B7H   SFRSYM    DATA     BYTE      IPH
      000000CDH   SFRSYM    DATA     BYTE      SPSTAT
      000000DDH   SFRSYM    DATA     BYTE      T4T3M
      000000C1H   SFRSYM    DATA     BYTE      WDT_CONTR
L251 LINKER/LOCATER V4.66.93.0                                                        04/24/2024  23:59:23  PAGE 54


      000000DFH   SFRSYM    DATA     BYTE      IP3
      000000F4H   SFRSYM    DATA     BYTE      USBCON
      000000B5H   SFRSYM    DATA     BYTE      IP2
      000000FFH   SFRSYM    DATA     BYTE      RSTCFG
      000000C7H   SFRSYM    DATA     BYTE      IAP_CONTR
      000000F9H   SFRSYM    DATA     BYTE      LINICR
      0000008EH   SFRSYM    DATA     BYTE      AUXR
      000000AFH   SFRSYM    DATA     BYTE      IE2
      000000C8H.3 SFRSYM    DATA     BIT       P53
      000000C8H.2 SFRSYM    DATA     BIT       P52
      00000080H.6 SFRSYM    DATA     BIT       P06
      00000080H.5 SFRSYM    DATA     BIT       P05
      00000088H   SFRSYM    DATA     BYTE      TCON
      00000089H   SFRSYM    DATA     BYTE      TMOD
      000000C8H.0 SFRSYM    DATA     BIT       P50
      00000098H   SFRSYM    DATA     BYTE      SCON
      000000FFH.4 SFRSYM    DATA     BIT       P54RST
      000000F1H   SFRSYM    DATA     BYTE      CANICR
      00000087H   SFRSYM    DATA     BYTE      PCON
      000000BCH   SFRSYM    DATA     BYTE      ADC_CONTR
      000000E7H   SFRSYM    DATA     BYTE      CMPCR2
      000000E6H   SFRSYM    DATA     BYTE      CMPCR1
      000000DEH   SFRSYM    DATA     BYTE      ADCCFG
      000000B8H   SFRSYM    DATA     BYTE      IP
      0000008FH   SFRSYM    DATA     BYTE      INTCLKO
      000000A0H.2 SFRSYM    DATA     BIT       CS
      000000EEH   SFRSYM    DATA     BYTE      IP3H
      000000B6H   SFRSYM    DATA     BYTE      IP2H
      000000A8H   SFRSYM    DATA     BYTE      IE
      000000BBH   SFRSYM    DATA     BYTE      P_SW3
      000000BAH   SFRSYM    DATA     BYTE      P_SW2
      000000A2H   SFRSYM    DATA     BYTE      P_SW1
      000000CEH   SFRSYM    DATA     BYTE      SPCTL
      000000F8H   SFRSYM    DATA     BYTE      P7
      000000E1H   SFRSYM    DATA     BYTE      P7M1
      000000E8H   SFRSYM    DATA     BYTE      P6
      000000C8H   SFRSYM    DATA     BYTE      P5
      000000CBH   SFRSYM    DATA     BYTE      P6M1
      000000E2H   SFRSYM    DATA     BYTE      P7M0
      000000C0H   SFRSYM    DATA     BYTE      P4
      000000C9H   SFRSYM    DATA     BYTE      P5M1
      000000CCH   SFRSYM    DATA     BYTE      P6M0
      000000B0H   SFRSYM    DATA     BYTE      P3
      000000B3H   SFRSYM    DATA     BYTE      P4M1
      000000CAH   SFRSYM    DATA     BYTE      P5M0
      000000A0H   SFRSYM    DATA     BYTE      P2
      000000B1H   SFRSYM    DATA     BYTE      P3M1
      000000B4H   SFRSYM    DATA     BYTE      P4M0
      00000090H   SFRSYM    DATA     BYTE      P1
      00000095H   SFRSYM    DATA     BYTE      P2M1
      000000B2H   SFRSYM    DATA     BYTE      P3M0
      00000080H   SFRSYM    DATA     BYTE      P0
      00000091H   SFRSYM    DATA     BYTE      P1M1
      00000096H   SFRSYM    DATA     BYTE      P2M0
      00000092H   SFRSYM    DATA     BYTE      P1M0
      00000093H   SFRSYM    DATA     BYTE      P0M1

      00FF90B4H   BLOCK     CODE     ---       LVL=0
      R10         REGSYM    ---      BYTE      dat
      00FF90B4H   LINE      CODE     ---       #14
      00FF90B6H   LINE      CODE     ---       #16
      00FF90B8H   LINE      CODE     ---       #17
      00FF90BBH   LINE      CODE     ---       #18
      00FF90BEH   LINE      CODE     ---       #19
      00FF90C2H   LINE      CODE     ---       #20
L251 LINKER/LOCATER V4.66.93.0                                                        04/24/2024  23:59:23  PAGE 55


      00FF90CBH   LINE      CODE     ---       #21
      ---         BLOCKEND  ---      ---       LVL=0

      00FF92A4H   BLOCK     CODE     ---       LVL=0
      00FF92A4H   LINE      CODE     ---       #32
      00FF92A4H   LINE      CODE     ---       #34
      00FF92A7H   LINE      CODE     ---       #35
      00FF92AAH   LINE      CODE     ---       #36
      00FF92ADH   LINE      CODE     ---       #37
      ---         BLOCKEND  ---      ---       LVL=0

      00FF8CE7H   BLOCK     CODE     ---       LVL=0
      00FF8CE7H   LINE      CODE     ---       #39
      00FF8CE7H   LINE      CODE     ---       #43
      00FF8CE9H   LINE      CODE     ---       #44
      00FF8CF9H   LINE      CODE     ---       #45
      00FF8D01H   LINE      CODE     ---       #46
      00FF8D08H   LINE      CODE     ---       #47
      00FF8D14H   LINE      CODE     ---       #55
      ---         BLOCKEND  ---      ---       LVL=0

      00FF8204H   BLOCK     CODE     ---       LVL=0
      00FF8204H   LINE      CODE     ---       #64
      00FF8204H   LINE      CODE     ---       #70
      00FF8214H   LINE      CODE     ---       #71
      00FF8220H   LINE      CODE     ---       #72
      00FF822CH   LINE      CODE     ---       #74
      00FF8238H   LINE      CODE     ---       #79
      00FF8244H   LINE      CODE     ---       #80
      00FF8250H   LINE      CODE     ---       #81
      00FF825CH   LINE      CODE     ---       #83
      00FF8268H   LINE      CODE     ---       #85
      ---         BLOCKEND  ---      ---       LVL=0

      00FF92CFH   BLOCK     CODE     ---       LVL=0
      00FF92CFH   LINE      CODE     ---       #88
      00FF92CFH   LINE      CODE     ---       #90
      00FF92D2H   LINE      CODE     ---       #91
      00FF92D5H   LINE      CODE     ---       #92
      ---         BLOCKEND  ---      ---       LVL=0

      00FF92C8H   BLOCK     CODE     ---       LVL=0
      00FF92C8H   LINE      CODE     ---       #94
      00FF92C8H   LINE      CODE     ---       #96
      00FF92CBH   LINE      CODE     ---       #97
      00FF92CEH   LINE      CODE     ---       #98
      ---         BLOCKEND  ---      ---       LVL=0

      00FF906AH   BLOCK     CODE     ---       LVL=0
      00FF906AH   LINE      CODE     ---       #102
      00FF906AH   LINE      CODE     ---       #104
      00FF9074H   LINE      CODE     ---       #106
      00FF9077H   LINE      CODE     ---       #107
      00FF9082H   LINE      CODE     ---       #108
      ---         BLOCKEND  ---      ---       LVL=0

      00FF92B7H   BLOCK     CODE     ---       LVL=0
      00FF92B7H   LINE      CODE     ---       #112
      00FF92B7H   LINE      CODE     ---       #114
      00FF92B9H   LINE      CODE     ---       #115
      00FF92BCH   LINE      CODE     ---       #116
      00FF92BFH   LINE      CODE     ---       #117
      ---         BLOCKEND  ---      ---       LVL=0

      00FF92AEH   BLOCK     CODE     ---       LVL=0
L251 LINKER/LOCATER V4.66.93.0                                                        04/24/2024  23:59:23  PAGE 56


      00FF92AEH   LINE      CODE     ---       #119
      00FF92AEH   LINE      CODE     ---       #122
      00FF92B1H   LINE      CODE     ---       #123
      00FF92B4H   LINE      CODE     ---       #124
      00FF92B6H   LINE      CODE     ---       #125
      ---         BLOCKEND  ---      ---       LVL=0

      00FF7912H   BLOCK     CODE     ---       LVL=0
      00FF7912H   LINE      CODE     ---       #132
      00FF7912H   LINE      CODE     ---       #141
      00FF7915H   LINE      CODE     ---       #142
      00FF7918H   LINE      CODE     ---       #146
      00FF791BH   LINE      CODE     ---       #147
      00FF791EH   LINE      CODE     ---       #148
      00FF7921H   LINE      CODE     ---       #153
      00FF7924H   LINE      CODE     ---       #154
      00FF7927H   LINE      CODE     ---       #156
      00FF7934H   LINE      CODE     ---       #162
      00FF7937H   LINE      CODE     ---       #163
      00FF793AH   LINE      CODE     ---       #167
      00FF793DH   LINE      CODE     ---       #168
      00FF7940H   LINE      CODE     ---       #173
      00FF7942H   LINE      CODE     ---       #174
      00FF7945H   LINE      CODE     ---       #175
      00FF7948H   LINE      CODE     ---       #178
      00FF794BH   LINE      CODE     ---       #179
      00FF794EH   LINE      CODE     ---       #181
      00FF7951H   LINE      CODE     ---       #182
      00FF7954H   LINE      CODE     ---       #184
      00FF795DH   LINE      CODE     ---       #185
      00FF7964H   LINE      CODE     ---       #188
      00FF7976H   LINE      CODE     ---       #189
      00FF7988H   LINE      CODE     ---       #190
      00FF799AH   LINE      CODE     ---       #191
      00FF79A9H   LINE      CODE     ---       #198
      ---         BLOCKEND  ---      ---       LVL=0

      ---         MODULE    ---      ---       logic
      00FF8EFFH   PUBLIC    CODE     ---       test_10
      00FF852AH   PUBLIC    CODE     ---       key_thread1_new
      00FF618AH   PUBLIC    CODE     ---       ESC_key
      00FF49EBH   PUBLIC    CODE     ---       SET_key
      00FF6F4BH   PUBLIC    CODE     ---       Add_key
      00FF8826H   PUBLIC    CODE     ---       jump_MainMenu
      00FF8269H   PUBLIC    CODE     ---       jump_SecondaryMenu
      000000D0H   SFRSYM    DATA     BYTE      PSW
      0000009DH   SFRSYM    DATA     BYTE      IRCBAND
      00000097H   SFRSYM    DATA     BYTE      AUXR2
      000000EFH   SFRSYM    DATA     BYTE      AUXINTIF
      000000FDH   SFRSYM    DATA     BYTE      S4CON
      000000ACH   SFRSYM    DATA     BYTE      S3CON
      0000009AH   SFRSYM    DATA     BYTE      S2CON
      000000B7H   SFRSYM    DATA     BYTE      IPH
      000000CDH   SFRSYM    DATA     BYTE      SPSTAT
      000000DDH   SFRSYM    DATA     BYTE      T4T3M
      000000C1H   SFRSYM    DATA     BYTE      WDT_CONTR
      000000DFH   SFRSYM    DATA     BYTE      IP3
      000000F4H   SFRSYM    DATA     BYTE      USBCON
      000000B5H   SFRSYM    DATA     BYTE      IP2
      000000FFH   SFRSYM    DATA     BYTE      RSTCFG
      000000C7H   SFRSYM    DATA     BYTE      IAP_CONTR
      000000F9H   SFRSYM    DATA     BYTE      LINICR
      0000008EH   SFRSYM    DATA     BYTE      AUXR
      000000AFH   SFRSYM    DATA     BYTE      IE2
      00000088H   SFRSYM    DATA     BYTE      TCON
L251 LINKER/LOCATER V4.66.93.0                                                        04/24/2024  23:59:23  PAGE 57


      00000089H   SFRSYM    DATA     BYTE      TMOD
      00000098H   SFRSYM    DATA     BYTE      SCON
      000000F1H   SFRSYM    DATA     BYTE      CANICR
      00000087H   SFRSYM    DATA     BYTE      PCON
      000000BCH   SFRSYM    DATA     BYTE      ADC_CONTR
      000000E7H   SFRSYM    DATA     BYTE      CMPCR2
      000000E6H   SFRSYM    DATA     BYTE      CMPCR1
      000000DEH   SFRSYM    DATA     BYTE      ADCCFG
      000000B8H   SFRSYM    DATA     BYTE      IP
      0000008FH   SFRSYM    DATA     BYTE      INTCLKO
      000000EEH   SFRSYM    DATA     BYTE      IP3H
      000000B6H   SFRSYM    DATA     BYTE      IP2H
      000000A8H   SFRSYM    DATA     BYTE      IE
      000000BBH   SFRSYM    DATA     BYTE      P_SW3
      000000BAH   SFRSYM    DATA     BYTE      P_SW2
      000000A2H   SFRSYM    DATA     BYTE      P_SW1
      000000CEH   SFRSYM    DATA     BYTE      SPCTL
      000000F8H   SFRSYM    DATA     BYTE      P7
      000000E8H   SFRSYM    DATA     BYTE      P6
      000000C8H   SFRSYM    DATA     BYTE      P5
      000000C0H   SFRSYM    DATA     BYTE      P4
      000000B0H   SFRSYM    DATA     BYTE      P3
      000000A0H   SFRSYM    DATA     BYTE      P2
      00000090H   SFRSYM    DATA     BYTE      P1
      00000080H   SFRSYM    DATA     BYTE      P0

      00FF8826H   BLOCK     CODE     ---       LVL=0
      00FF8826H   LINE      CODE     ---       #17
      00FF8828H   LINE      CODE     ---       #19
      00FF8830H   LINE      CODE     ---       #20
      00FF883CH   LINE      CODE     ---       #21
      00FF8859H   LINE      CODE     ---       #22
      00FF885FH   LINE      CODE     ---       #23
      ---         BLOCKEND  ---      ---       LVL=0

      00FF8269H   BLOCK     CODE     ---       LVL=0
      00FF8269H   LINE      CODE     ---       #25
      00FF826BH   LINE      CODE     ---       #27
      00FF8279H   LINE      CODE     ---       #28
      00FF827FH   LINE      CODE     ---       #29
      00FF82ADH   LINE      CODE     ---       #30
      00FF82B3H   LINE      CODE     ---       #31
      00FF82B9H   LINE      CODE     ---       #32
      00FF82C8H   LINE      CODE     ---       #33
      ---         BLOCKEND  ---      ---       LVL=0

      00FF8EFFH   BLOCK     CODE     ---       LVL=0
      00FF8EFFH   LINE      CODE     ---       #35
      00FF8EFFH   LINE      CODE     ---       #37
      00FF8F09H   LINE      CODE     ---       #38
      00FF8F13H   LINE      CODE     ---       #39
      00FF8F1DH   LINE      CODE     ---       #41
      ---         BLOCKEND  ---      ---       LVL=0

      00FF49EBH   BLOCK     CODE     ---       LVL=0
      00FF49EBH   LINE      CODE     ---       #46
      00FF49EDH   LINE      CODE     ---       #59
      00FF4A2DH   LINE      CODE     ---       #61
      00FF4A33H   LINE      CODE     ---       #63
      00FF4A3DH   LINE      CODE     ---       #65
      00FF4A40H   LINE      CODE     ---       #66
      00FF4A42H   LINE      CODE     ---       #69
      00FF4A4EH   LINE      CODE     ---       #70
      00FF4A51H   LINE      CODE     ---       #71
      00FF4A59H   LINE      CODE     ---       #72
L251 LINKER/LOCATER V4.66.93.0                                                        04/24/2024  23:59:23  PAGE 58


      00FF4A63H   LINE      CODE     ---       #73
      00FF4A6DH   LINE      CODE     ---       #74
      00FF4A6DH   LINE      CODE     ---       #75
      00FF4A6DH   LINE      CODE     ---       #77
      00FF4A70H   LINE      CODE     ---       #78
      00FF4A73H   LINE      CODE     ---       #84
      00FF4A83H   LINE      CODE     ---       #86
      00FF4A83H   LINE      CODE     ---       #87
      00FF4A86H   LINE      CODE     ---       #93
      00FF4AA8H   LINE      CODE     ---       #95
      00FF4AC0H   LINE      CODE     ---       #97
      00FF4ACAH   LINE      CODE     ---       #98
      00FF4ACAH   LINE      CODE     ---       #99
      00FF4ACDH   LINE      CODE     ---       #100
      00FF4ADFH   LINE      CODE     ---       #103
      00FF4AE5H   LINE      CODE     ---       #104
      00FF4AE9H   LINE      CODE     ---       #105
      00FF4AECH   LINE      CODE     ---       #106
      00FF4B02H   LINE      CODE     ---       #108
      00FF4B05H   LINE      CODE     ---       #109
      00FF4B0BH   LINE      CODE     ---       #110
      00FF4B0EH   LINE      CODE     ---       #117
      00FF4B30H   LINE      CODE     ---       #119
      00FF4B3AH   LINE      CODE     ---       #120
      00FF4B3AH   LINE      CODE     ---       #121
      00FF4B3DH   LINE      CODE     ---       #127
      00FF4B5BH   LINE      CODE     ---       #129
      00FF4B63H   LINE      CODE     ---       #130
      00FF4B69H   LINE      CODE     ---       #131
      00FF4B8DH   LINE      CODE     ---       #132
      00FF4B8FH   LINE      CODE     ---       #138
      00FF4BBFH   LINE      CODE     ---       #140
      00FF4BC9H   LINE      CODE     ---       #141
      00FF4BCFH   LINE      CODE     ---       #142
      00FF4BD1H   LINE      CODE     ---       #145
      00FF4BD4H   LINE      CODE     ---       #146
      00FF4BD4H   LINE      CODE     ---       #149
      ---         BLOCKEND  ---      ---       LVL=0

      00FF618AH   BLOCK     CODE     ---       LVL=0
      00FF618AH   LINE      CODE     ---       #161
      00FF618CH   LINE      CODE     ---       #166
      00FF61A2H   LINE      CODE     ---       #168
      00FF61AEH   LINE      CODE     ---       #170
      00FF61BAH   LINE      CODE     ---       #171
      00FF61C2H   LINE      CODE     ---       #172
      00FF61CEH   LINE      CODE     ---       #173
      00FF61CEH   LINE      CODE     ---       #174
      00FF61D1H   LINE      CODE     ---       #175
      00FF61DAH   LINE      CODE     ---       #177
      00FF61E1H   LINE      CODE     ---       #178
      00FF61E4H   LINE      CODE     ---       #179
      00FF61E7H   LINE      CODE     ---       #180
      00FF61EAH   LINE      CODE     ---       #182
      00FF6226H   LINE      CODE     ---       #184
      00FF622CH   LINE      CODE     ---       #185
      00FF622CH   LINE      CODE     ---       #187
      00FF622EH   LINE      CODE     ---       #188
      00FF6246H   LINE      CODE     ---       #190
      00FF624EH   LINE      CODE     ---       #191
      00FF6254H   LINE      CODE     ---       #192
      00FF6278H   LINE      CODE     ---       #193
      00FF628BH   LINE      CODE     ---       #194
      00FF628DH   LINE      CODE     ---       #198
      00FF6290H   LINE      CODE     ---       #200
L251 LINKER/LOCATER V4.66.93.0                                                        04/24/2024  23:59:23  PAGE 59


      00FF6290H   LINE      CODE     ---       #202
      ---         BLOCKEND  ---      ---       LVL=0

      00FF6F4BH   BLOCK     CODE     ---       LVL=0
      R15         REGSYM    ---      BYTE      a
      00FF6F4BH   LINE      CODE     ---       #205
      00FF6F51H   LINE      CODE     ---       #212
      00FF6F5DH   LINE      CODE     ---       #215
      00FF6F65H   LINE      CODE     ---       #216
      00FF6F6BH   LINE      CODE     ---       #217
      00FF6F71H   LINE      CODE     ---       #218
      00FF6F77H   LINE      CODE     ---       #219
      00FF6F7DH   LINE      CODE     ---       #220
      00FF6F83H   LINE      CODE     ---       #221
      00FF6F89H   LINE      CODE     ---       #222
      00FF6F8FH   LINE      CODE     ---       #223
      00FF6F91H   LINE      CODE     ---       #224
      00FF6F9FH   LINE      CODE     ---       #226
      00FF6FA3H   LINE      CODE     ---       #227
      00FF6FA5H   LINE      CODE     ---       #228
      00FF6FBBH   LINE      CODE     ---       #230
      00FF6FC4H   LINE      CODE     ---       #231
      00FF6FC4H   LINE      CODE     ---       #232
      00FF6FC4H   LINE      CODE     ---       #235
      00FF6FC4H   LINE      CODE     ---       #238
      00FF6FFAH   LINE      CODE     ---       #240
      00FF6FFEH   LINE      CODE     ---       #242
      00FF7002H   LINE      CODE     ---       #243
      00FF7002H   LINE      CODE     ---       #244
      00FF7004H   LINE      CODE     ---       #247
      00FF700EH   LINE      CODE     ---       #248
      00FF7014H   LINE      CODE     ---       #249
      00FF7014H   LINE      CODE     ---       #250
      ---         BLOCKEND  ---      ---       LVL=0

      00FF852AH   BLOCK     CODE     ---       LVL=0
      00FF852AH   LINE      CODE     ---       #260
      00FF852AH   LINE      CODE     ---       #262
      00FF8536H   LINE      CODE     ---       #265
      00FF8542H   LINE      CODE     ---       #268
      00FF854EH   LINE      CODE     ---       #270
      00FF855AH   LINE      CODE     ---       #272
      00FF855DH   LINE      CODE     ---       #273
      00FF856BH   LINE      CODE     ---       #274
      00FF856BH   LINE      CODE     ---       #279
      00FF8577H   LINE      CODE     ---       #280
      ---         BLOCKEND  ---      ---       LVL=0

      ---         MODULE    ---      ---       main
      00FF52D9H   PUBLIC    CODE     ---       main
      00FF006AH   PUBLIC    CODE     ---       INT0_Isr
      00FF0132H   PUBLIC    CODE     ---       INT1_Isr
      00FF4F95H   PUBLIC    CODE     ---       KZ_isr
      00010B75H   PUBLIC    XDATA    ---       JCQ06_00
      00000374H   PUBLIC    EDATA    WORD      sleep_dat
      00000376H   PUBLIC    EDATA    WORD      gg
      00000378H   PUBLIC    EDATA    DWORD     Interrupt_flag
      0000037CH   PUBLIC    EDATA    BYTE      uu
      0000037DH   PUBLIC    EDATA    DWORD     dat1
      00000381H   PUBLIC    EDATA    DWORD     dat2
      00000385H   PUBLIC    EDATA    DWORD     dat3
      00000389H   PUBLIC    EDATA    DWORD     dat4
      0000038DH   PUBLIC    EDATA    DWORD     dat5
      00000391H   PUBLIC    EDATA    DWORD     dat6
      00000395H   PUBLIC    EDATA    DWORD     dat7
L251 LINKER/LOCATER V4.66.93.0                                                        04/24/2024  23:59:23  PAGE 60


      000000D0H   SFRSYM    DATA     BYTE      PSW
      000000BAH.7 SFRSYM    DATA     BIT       EAXFR
      0000009DH   SFRSYM    DATA     BYTE      IRCBAND
      00000097H   SFRSYM    DATA     BYTE      AUXR2
      000000EAH   SFRSYM    DATA     BYTE      CKCON
      000000EFH   SFRSYM    DATA     BYTE      AUXINTIF
      000000FDH   SFRSYM    DATA     BYTE      S4CON
      000000ACH   SFRSYM    DATA     BYTE      S3CON
      0000009AH   SFRSYM    DATA     BYTE      S2CON
      000000B7H   SFRSYM    DATA     BYTE      IPH
      000000CDH   SFRSYM    DATA     BYTE      SPSTAT
      000000DDH   SFRSYM    DATA     BYTE      T4T3M
      000000C1H   SFRSYM    DATA     BYTE      WDT_CONTR
      000000E9H   SFRSYM    DATA     BYTE      WTST
      000000DFH   SFRSYM    DATA     BYTE      IP3
      000000F4H   SFRSYM    DATA     BYTE      USBCON
      000000B5H   SFRSYM    DATA     BYTE      IP2
      000000FFH   SFRSYM    DATA     BYTE      RSTCFG
      000000DCH   SFRSYM    DATA     BYTE      USBCLK
      000000C7H   SFRSYM    DATA     BYTE      IAP_CONTR
      000000F9H   SFRSYM    DATA     BYTE      LINICR
      0000008EH   SFRSYM    DATA     BYTE      AUXR
      000000AFH   SFRSYM    DATA     BYTE      IE2
      00000088H   SFRSYM    DATA     BYTE      TCON
      00000089H   SFRSYM    DATA     BYTE      TMOD
      00000098H   SFRSYM    DATA     BYTE      SCON
      000000FFH.4 SFRSYM    DATA     BIT       P54RST
      000000F1H   SFRSYM    DATA     BYTE      CANICR
      00000087H   SFRSYM    DATA     BYTE      PCON
      000000BCH   SFRSYM    DATA     BYTE      ADC_CONTR
      000000E7H   SFRSYM    DATA     BYTE      CMPCR2
      000000E6H   SFRSYM    DATA     BYTE      CMPCR1
      000000DEH   SFRSYM    DATA     BYTE      ADCCFG
      000000B8H   SFRSYM    DATA     BYTE      IP
      0000008FH   SFRSYM    DATA     BYTE      INTCLKO
      000000EEH   SFRSYM    DATA     BYTE      IP3H
      000000B6H   SFRSYM    DATA     BYTE      IP2H
      000000A8H   SFRSYM    DATA     BYTE      IE
      000000BBH   SFRSYM    DATA     BYTE      P_SW3
      000000BAH   SFRSYM    DATA     BYTE      P_SW2
      000000A2H   SFRSYM    DATA     BYTE      P_SW1
      000000CEH   SFRSYM    DATA     BYTE      SPCTL
      000000F8H   SFRSYM    DATA     BYTE      P7
      000000A8H.7 SFRSYM    DATA     BIT       EA
      000000E8H   SFRSYM    DATA     BYTE      P6
      000000C8H   SFRSYM    DATA     BYTE      P5
      000000C0H   SFRSYM    DATA     BYTE      P4
      000000B0H   SFRSYM    DATA     BYTE      P3
      000000A0H   SFRSYM    DATA     BYTE      P2
      00000090H   SFRSYM    DATA     BYTE      P1
      00000080H   SFRSYM    DATA     BYTE      P0

      00FF52D9H   BLOCK     CODE     ---       LVL=0
      00FF52D9H   LINE      CODE     ---       #97
      00FF52D9H   LINE      CODE     ---       #98
      00FF52D9H   LINE      CODE     ---       #99
      00FF52D9H   LINE      CODE     ---       #100
      00FF52D9H   LINE      CODE     ---       #101
      00FF52D9H   LINE      CODE     ---       #102
      00FF52D9H   LINE      CODE     ---       #103
      00FF52D9H   LINE      CODE     ---       #104
      00FF52D9H   LINE      CODE     ---       #105
      00FF52D9H   LINE      CODE     ---       #106
      00FF52D9H   LINE      CODE     ---       #108
      00FF52DCH   LINE      CODE     ---       #109
L251 LINKER/LOCATER V4.66.93.0                                                        04/24/2024  23:59:23  PAGE 61


      00FF52DFH   LINE      CODE     ---       #110
      00FF52E2H   LINE      CODE     ---       #111
      00FF52E5H   LINE      CODE     ---       #114
      00FF52F5H   LINE      CODE     ---       #115
      00FF52F8H   LINE      CODE     ---       #116
      00FF52FBH   LINE      CODE     ---       #117
      00FF52FEH   LINE      CODE     ---       #118
      00FF5303H   LINE      CODE     ---       #120
      00FF5313H   LINE      CODE     ---       #121
      00FF531CH   LINE      CODE     ---       #144
      00FF531DH   LINE      CODE     ---       #145
      00FF531EH   LINE      CODE     ---       #146
      00FF531FH   LINE      CODE     ---       #147
      00FF5320H   LINE      CODE     ---       #150
      00FF5323H   LINE      CODE     ---       #151
      00FF5327H   LINE      CODE     ---       #152
      00FF532AH   LINE      CODE     ---       #154
      00FF532DH   LINE      CODE     ---       #155
      00FF5330H   LINE      CODE     ---       #156
      00FF5333H   LINE      CODE     ---       #157
      00FF5336H   LINE      CODE     ---       #159
      00FF5339H   LINE      CODE     ---       #161
      00FF5344H   LINE      CODE     ---       #162
      00FF5347H   LINE      CODE     ---       #163
      00FF5352H   LINE      CODE     ---       #164
      00FF5355H   LINE      CODE     ---       #168
      00FF5358H   LINE      CODE     ---       #169
      00FF535DH   LINE      CODE     ---       #170
      00FF5360H   LINE      CODE     ---       #171
      00FF5365H   LINE      CODE     ---       #172
      00FF5368H   LINE      CODE     ---       #173
      00FF536DH   LINE      CODE     ---       #174
      00FF5372H   LINE      CODE     ---       #175
      00FF5375H   LINE      CODE     ---       #176
      00FF5378H   LINE      CODE     ---       #178
      00FF537BH   LINE      CODE     ---       #188
      00FF537BH   LINE      CODE     ---       #189
      00FF5380H   LINE      CODE     ---       #190
      00FF538BH   LINE      CODE     ---       #191
      00FF5390H   LINE      CODE     ---       #192
      00FF539BH   LINE      CODE     ---       #204
      00FF53A8H   LINE      CODE     ---       #205
      00FF53ABH   LINE      CODE     ---       #206
      00FF53AFH   LINE      CODE     ---       #208
      00FF53BCH   LINE      CODE     ---       #290
      00FF53C7H   LINE      CODE     ---       #291
      00FF53CCH   LINE      CODE     ---       #292
      00FF53CFH   LINE      CODE     ---       #295
      00FF53DBH   LINE      CODE     ---       #296
      00FF53E5H   LINE      CODE     ---       #297
      00FF53EBH   LINE      CODE     ---       #298
      00FF53F7H   LINE      CODE     ---       #300
      00FF5407H   LINE      CODE     ---       #301
      00FF5413H   LINE      CODE     ---       #302
      00FF541FH   LINE      CODE     ---       #303
      00FF542BH   LINE      CODE     ---       #304
      00FF542DH   LINE      CODE     ---       #312
      00FF542DH   LINE      CODE     ---       #315
      00FF5430H   LINE      CODE     ---       #316
      00FF5433H   LINE      CODE     ---       #317
      00FF5436H   LINE      CODE     ---       #318
      00FF5439H   LINE      CODE     ---       #319
      00FF543CH   LINE      CODE     ---       #325
      00FF5444H   LINE      CODE     ---       #327
      00FF5449H   LINE      CODE     ---       #328
L251 LINKER/LOCATER V4.66.93.0                                                        04/24/2024  23:59:23  PAGE 62


      00FF5449H   LINE      CODE     ---       #330
      00FF544CH   LINE      CODE     ---       #331
      00FF544FH   LINE      CODE     ---       #333
      00FF5452H   LINE      CODE     ---       #334
      00FF5455H   LINE      CODE     ---       #335
      00FF5458H   LINE      CODE     ---       #336
      00FF545BH   LINE      CODE     ---       #337
      00FF545EH   LINE      CODE     ---       #338
      00FF5461H   LINE      CODE     ---       #339
      00FF5464H   LINE      CODE     ---       #340
      00FF5467H   LINE      CODE     ---       #341
      ---         BLOCKEND  ---      ---       LVL=0

      00FF006AH   BLOCK     CODE     ---       LVL=0
      00FF006AH   LINE      CODE     ---       #344
      00FF006AH   LINE      CODE     ---       #346
      ---         BLOCKEND  ---      ---       LVL=0

      00FF0132H   BLOCK     CODE     ---       LVL=0
      00FF0132H   LINE      CODE     ---       #348
      00FF0132H   LINE      CODE     ---       #350
      ---         BLOCKEND  ---      ---       LVL=0

      00FF4F95H   BLOCK     CODE     ---       LVL=0
      00FF4FABH   BLOCK     CODE     NEAR LAB  LVL=1
      R15         REGSYM    ---      BYTE      intf
      ---         BLOCKEND  ---      ---       LVL=1
      00FF4F95H   LINE      CODE     ---       #352
      00FF4FABH   LINE      CODE     ---       #353
      00FF4FABH   LINE      CODE     ---       #354
      00FF4FABH   LINE      CODE     ---       #356
      00FF4FB6H   LINE      CODE     ---       #357
      00FF4FBAH   LINE      CODE     ---       #360
      00FF4FBEH   LINE      CODE     ---       #361
      00FF4FC3H   LINE      CODE     ---       #363
      00FF4FCEH   LINE      CODE     ---       #364
      00FF4FDAH   LINE      CODE     ---       #366
      00FF4FEAH   LINE      CODE     ---       #367
      00FF4FF6H   LINE      CODE     ---       #368
      00FF4FF6H   LINE      CODE     ---       #370
      00FF4FF6H   LINE      CODE     ---       #372
      00FF5001H   LINE      CODE     ---       #373
      00FF5005H   LINE      CODE     ---       #376
      00FF5009H   LINE      CODE     ---       #377
      00FF500EH   LINE      CODE     ---       #379
      00FF501AH   LINE      CODE     ---       #380
      00FF5026H   LINE      CODE     ---       #382
      00FF502BH   LINE      CODE     ---       #383
      00FF5038H   LINE      CODE     ---       #384
      00FF5038H   LINE      CODE     ---       #385
      00FF503DH   LINE      CODE     ---       #387
      00FF5049H   LINE      CODE     ---       #388
      00FF5055H   LINE      CODE     ---       #390
      00FF5058H   LINE      CODE     ---       #391
      00FF5060H   LINE      CODE     ---       #392
      00FF5060H   LINE      CODE     ---       #395
      00FF506BH   LINE      CODE     ---       #396
      00FF506FH   LINE      CODE     ---       #400
      00FF5073H   LINE      CODE     ---       #401
      00FF5078H   LINE      CODE     ---       #404
      00FF5084H   LINE      CODE     ---       #405
      00FF5090H   LINE      CODE     ---       #407
      00FF5094H   LINE      CODE     ---       #408
      00FF50A1H   LINE      CODE     ---       #409
      00FF50A1H   LINE      CODE     ---       #410
L251 LINKER/LOCATER V4.66.93.0                                                        04/24/2024  23:59:23  PAGE 63


      00FF50A6H   LINE      CODE     ---       #412
      00FF50B2H   LINE      CODE     ---       #413
      00FF50BEH   LINE      CODE     ---       #415
      00FF50C1H   LINE      CODE     ---       #416
      00FF50C9H   LINE      CODE     ---       #417
      00FF50C9H   LINE      CODE     ---       #419
      00FF50D4H   LINE      CODE     ---       #420
      00FF50D8H   LINE      CODE     ---       #422
      00FF50DCH   LINE      CODE     ---       #423
      00FF50E1H   LINE      CODE     ---       #425
      00FF50EDH   LINE      CODE     ---       #426
      00FF50EDH   LINE      CODE     ---       #428
      00FF50F9H   LINE      CODE     ---       #429
      00FF5100H   LINE      CODE     ---       #430
      00FF5103H   LINE      CODE     ---       #431
      00FF510EH   LINE      CODE     ---       #432
      00FF5115H   LINE      CODE     ---       #433
      00FF511CH   LINE      CODE     ---       #434
      00FF5123H   LINE      CODE     ---       #435
      00FF512AH   LINE      CODE     ---       #440
      00FF512DH   LINE      CODE     ---       #441
      ---         BLOCKEND  ---      ---       LVL=0

      ---         MODULE    ---      ---       Main_Menu
      00FF5BC5H   PUBLIC    CODE     ---       UI_main
      00FF8D42H   PUBLIC    CODE     ---       IU_Main_Menu_Switch
      00FF4DC0H   PUBLIC    CODE     ---       IU_Main_Menu
      000000D0H   SFRSYM    DATA     BYTE      PSW
      0000009DH   SFRSYM    DATA     BYTE      IRCBAND
      00000097H   SFRSYM    DATA     BYTE      AUXR2
      000000EFH   SFRSYM    DATA     BYTE      AUXINTIF
      000000FDH   SFRSYM    DATA     BYTE      S4CON
      000000ACH   SFRSYM    DATA     BYTE      S3CON
      0000009AH   SFRSYM    DATA     BYTE      S2CON
      000000B7H   SFRSYM    DATA     BYTE      IPH
      000000CDH   SFRSYM    DATA     BYTE      SPSTAT
      000000DDH   SFRSYM    DATA     BYTE      T4T3M
      000000C1H   SFRSYM    DATA     BYTE      WDT_CONTR
      000000DFH   SFRSYM    DATA     BYTE      IP3
      000000F4H   SFRSYM    DATA     BYTE      USBCON
      000000B5H   SFRSYM    DATA     BYTE      IP2
      000000FFH   SFRSYM    DATA     BYTE      RSTCFG
      000000C7H   SFRSYM    DATA     BYTE      IAP_CONTR
      000000F9H   SFRSYM    DATA     BYTE      LINICR
      0000008EH   SFRSYM    DATA     BYTE      AUXR
      000000AFH   SFRSYM    DATA     BYTE      IE2
      000000A0H.7 SFRSYM    DATA     BIT       P27
      000000C0H.5 SFRSYM    DATA     BIT       P45
      00000088H   SFRSYM    DATA     BYTE      TCON
      00000089H   SFRSYM    DATA     BYTE      TMOD
      00000098H   SFRSYM    DATA     BYTE      SCON
      000000F1H   SFRSYM    DATA     BYTE      CANICR
      00000087H   SFRSYM    DATA     BYTE      PCON
      000000BCH   SFRSYM    DATA     BYTE      ADC_CONTR
      000000E7H   SFRSYM    DATA     BYTE      CMPCR2
      000000E6H   SFRSYM    DATA     BYTE      CMPCR1
      000000DEH   SFRSYM    DATA     BYTE      ADCCFG
      000000B8H   SFRSYM    DATA     BYTE      IP
      0000008FH   SFRSYM    DATA     BYTE      INTCLKO
      000000EEH   SFRSYM    DATA     BYTE      IP3H
      000000B6H   SFRSYM    DATA     BYTE      IP2H
      000000A8H   SFRSYM    DATA     BYTE      IE
      000000BBH   SFRSYM    DATA     BYTE      P_SW3
      000000BAH   SFRSYM    DATA     BYTE      P_SW2
      000000A2H   SFRSYM    DATA     BYTE      P_SW1
L251 LINKER/LOCATER V4.66.93.0                                                        04/24/2024  23:59:23  PAGE 64


      000000CEH   SFRSYM    DATA     BYTE      SPCTL
      000000F8H   SFRSYM    DATA     BYTE      P7
      000000E8H   SFRSYM    DATA     BYTE      P6
      000000C8H   SFRSYM    DATA     BYTE      P5
      000000C0H   SFRSYM    DATA     BYTE      P4
      000000B0H   SFRSYM    DATA     BYTE      P3
      000000A0H   SFRSYM    DATA     BYTE      P2
      00000090H   SFRSYM    DATA     BYTE      P1
      00000080H   SFRSYM    DATA     BYTE      P0

      00FF5BC5H   BLOCK     CODE     ---       LVL=0
      R10         REGSYM    ---      BYTE      num1
      00FF5BC9H   BLOCK     CODE     NEAR LAB  LVL=1
      R15         REGSYM    ---      BYTE      num
      R15         REGSYM    ---      BYTE      yyy
      ---         BLOCKEND  ---      ---       LVL=1
      00FF5BC5H   LINE      CODE     ---       #21
      00FF5BC9H   LINE      CODE     ---       #22
      00FF5BC9H   LINE      CODE     ---       #23
      00FF5BC9H   LINE      CODE     ---       #24
      00FF5BC9H   LINE      CODE     ---       #25
      00FF5BD5H   LINE      CODE     ---       #26
      00FF5BE1H   LINE      CODE     ---       #27
      00FF5BE5H   LINE      CODE     ---       #30
      00FF5BFEH   LINE      CODE     ---       #31
      00FF5C18H   LINE      CODE     ---       #32
      00FF5C34H   LINE      CODE     ---       #33
      00FF5C4FH   LINE      CODE     ---       #34
      00FF5C51H   LINE      CODE     ---       #37
      00FF5C6DH   LINE      CODE     ---       #38
      00FF5C87H   LINE      CODE     ---       #39
      00FF5CA1H   LINE      CODE     ---       #40
      00FF5CBFH   LINE      CODE     ---       #41
      00FF5CBFH   LINE      CODE     ---       #42
      00FF5CCFH   LINE      CODE     ---       #44
      00FF5CDDH   LINE      CODE     ---       #45
      00FF5CE7H   LINE      CODE     ---       #46
      00FF5CF3H   LINE      CODE     ---       #47
      00FF5CFFH   LINE      CODE     ---       #48
      00FF5D0CH   LINE      CODE     ---       #49
      ---         BLOCKEND  ---      ---       LVL=0

      00FF4DC0H   BLOCK     CODE     ---       LVL=0
      00FF4DC0H   LINE      CODE     ---       #53
      00FF4DC2H   LINE      CODE     ---       #55
      00FF4DDCH   LINE      CODE     ---       #57
      00FF4DFAH   LINE      CODE     ---       #59
      00FF4E00H   LINE      CODE     ---       #60
      00FF4E09H   LINE      CODE     ---       #61
      00FF4E09H   LINE      CODE     ---       #62
      00FF4E1AH   LINE      CODE     ---       #65
      00FF4E24H   LINE      CODE     ---       #67
      00FF4E2AH   LINE      CODE     ---       #69
      00FF4E34H   LINE      CODE     ---       #71
      00FF4E41H   LINE      CODE     ---       #74
      00FF4E4DH   LINE      CODE     ---       #75
      00FF4E4DH   LINE      CODE     ---       #78
      00FF4E69H   LINE      CODE     ---       #80
      00FF4E79H   LINE      CODE     ---       #82
      00FF4E7EH   LINE      CODE     ---       #83
      00FF4E87H   LINE      CODE     ---       #84
      00FF4E89H   LINE      CODE     ---       #85
      00FF4E8DH   LINE      CODE     ---       #87
      00FF4E91H   LINE      CODE     ---       #88
      00FF4E9DH   LINE      CODE     ---       #90
L251 LINKER/LOCATER V4.66.93.0                                                        04/24/2024  23:59:23  PAGE 65


      00FF4E9DH   LINE      CODE     ---       #91
      00FF4EA8H   LINE      CODE     ---       #92
      00FF4EB5H   LINE      CODE     ---       #94
      00FF4EC1H   LINE      CODE     ---       #95
      00FF4ECDH   LINE      CODE     ---       #97
      00FF4ED8H   LINE      CODE     ---       #99
      00FF4EE8H   LINE      CODE     ---       #101
      00FF4EF2H   LINE      CODE     ---       #103
      00FF4F0AH   LINE      CODE     ---       #105
      00FF4F18H   LINE      CODE     ---       #106
      00FF4F26H   LINE      CODE     ---       #107
      00FF4F28H   LINE      CODE     ---       #109
      00FF4F2CH   LINE      CODE     ---       #111
      00FF4F34H   LINE      CODE     ---       #112
      00FF4F4CH   LINE      CODE     ---       #114
      00FF4F5AH   LINE      CODE     ---       #115
      00FF4F68H   LINE      CODE     ---       #116
      00FF4F68H   LINE      CODE     ---       #118
      00FF4F78H   LINE      CODE     ---       #120
      00FF4F7BH   LINE      CODE     ---       #122
      00FF4F86H   LINE      CODE     ---       #123
      00FF4F86H   LINE      CODE     ---       #124
      00FF4F89H   LINE      CODE     ---       #126
      00FF4F92H   LINE      CODE     ---       #127
      00FF4F92H   LINE      CODE     ---       #129
      00FF4F92H   LINE      CODE     ---       #130
      00FF4F92H   LINE      CODE     ---       #132
      00FF4F92H   LINE      CODE     ---       #133
      00FF4F92H   LINE      CODE     ---       #134
      ---         BLOCKEND  ---      ---       LVL=0

      00FF8D42H   BLOCK     CODE     ---       LVL=0
      00FF8D42H   LINE      CODE     ---       #139
      00FF8D42H   LINE      CODE     ---       #141
      00FF8D4AH   LINE      CODE     ---       #142
      00FF8D50H   LINE      CODE     ---       #145
      00FF8D60H   LINE      CODE     ---       #146
      00FF8D66H   LINE      CODE     ---       #147
      00FF8D6CH   LINE      CODE     ---       #151
      ---         BLOCKEND  ---      ---       LVL=0

      ---         MODULE    ---      ---       OLED
      00FF90CCH   PUBLIC    CODE     ---       IU_16x8_Fill
      00FF77D9H   PUBLIC    CODE     ---       OLED_16X16_MOV
      00FF8134H   PUBLIC    CODE     ---       shifen
      00FF89E9H   PUBLIC    CODE     ---       SPI_init
      00FF6E7BH   PUBLIC    CODE     ---       shifen_dh_z
      00FF7495H   PUBLIC    CODE     ---       OLED_16_16V
      00FF45C6H   PUBLIC    CODE     ---       IU_Battery_cheek_renovate
      00FF7BF4H   PUBLIC    CODE     ---       IU_Battery_Icon_S_1
      00FF8BF5H   PUBLIC    CODE     ---       OLED_Fill
      00FF87E9H   PUBLIC    CODE     ---       yue_ri
      00FF8B27H   PUBLIC    CODE     ---       OLED_Mean2_fill_num_10X
      00FF90E4H   PUBLIC    CODE     ---       SPI_DMA_delay
      00FF8E7AH   PUBLIC    CODE     ---       SPI_DMA_switch
      00FF860DH   PUBLIC    CODE     ---       IU_Battery_cheek_renovate_count
      00FF73E2H   PUBLIC    CODE     ---       OLED_Init
      00FF9083H   PUBLIC    CODE     ---       SPI_DMA
      00FF8946H   PUBLIC    CODE     ---       numlongGet
      00FF6CD7H   PUBLIC    CODE     ---       OLED_32X32
      00FF6494H   PUBLIC    CODE     ---       OLED_Mean2_fill_num2
      00FF8862H   PUBLIC    CODE     ---       SPI_DMA_TX
      00FF7E7DH   PUBLIC    CODE     ---       OLED_16X16
      00FF47E2H   PUBLIC    CODE     ---       OLED_8X8X3_MOV
      00FF889CH   PUBLIC    CODE     ---       shifen_dh
L251 LINKER/LOCATER V4.66.93.0                                                        04/24/2024  23:59:23  PAGE 66


      00FF3ED6H   PUBLIC    CODE     ---       OLED_16_16Vabc
      00FF8A1FH   PUBLIC    CODE     ---       OLED_16_16V2
      00FF7019H   PUBLIC    CODE     ---       IU_Battery_cheek
      00FF8D97H   PUBLIC    CODE     ---       OLED_Mean2_fill
      00FF8E9DH   PUBLIC    CODE     ---       OLED_Set_Pos
      00FF916BH   PUBLIC    CODE     ---       OLED_FZQP
      00FF83E1H   PUBLIC    CODE     ---       ZF_8X8
      00FF658BH   PUBLIC    CODE     ---       debug_8x8
      00FF71ADH   PUBLIC    CODE     ---       OLED_Progress_Bar
      00FF82CBH   PUBLIC    CODE     ---       OLED_Region_Fill
      00FF0016H   PUBLIC    CODE     ---       SPI_DMA_Config
      00FF9209H   PUBLIC    CODE     ---       OLED_WrCmd
      00FF912AH   PUBLIC    CODE     ---       LCD_Writ_Bus
      00FF7D7EH   PUBLIC    CODE     ---       OLED_AlarmClock_ZH
      00FF927FH   PUBLIC    CODE     ---       OLED_WrDat
      00FF5D0FH   PUBLIC    CODE     ---       OLED_AlarmClock_ZQ
      00FF85C3H   PUBLIC    CODE     ---       OLED_Mean2_fill2
      00FF7FE3H   PUBLIC    CODE     ---       OLED_Mean2_fill_num
      00FF70E6H   PUBLIC    CODE     ---       ZF_8X16
      00FF75E8H   PUBLIC    CODE     ---       TVR
      00FF7329H   PUBLIC    CODE     ---       IU_Battery_Icon_S
      00FF01E0H   PUBLIC    CODE     ---       DSW_1
      00FF0280H   PUBLIC    CODE     ---       F8x16_unit
      00FF0350H   PUBLIC    CODE     ---       Brightness_setting
      00FF04D0H   PUBLIC    CODE     ---       F32x32
      00FF0CD0H   PUBLIC    CODE     ---       AlarmClock_set
      00FF1150H   PUBLIC    CODE     ---       Environment
      00FF14D0H   PUBLIC    CODE     ---       F8x8
      00FF1598H   PUBLIC    CODE     ---       KG_G
      00FF15D8H   PUBLIC    CODE     ---       KG_K
      00FF1618H   PUBLIC    CODE     ---       F8x16d
      00FF1998H   PUBLIC    CODE     ---       F16x16cd
      00FF21D8H   PUBLIC    CODE     ---       F8x16
      00FF23B8H   PUBLIC    CODE     ---       time_set
      00FF27B8H   PUBLIC    CODE     ---       Power_Options
      00FF2AB8H   PUBLIC    CODE     ---       F16x16_position
      00FF2B58H   PUBLIC    CODE     ---       Sound_setting
      00FF2CD8H   PUBLIC    CODE     ---       System_Information_data
      00FF32D8H   PUBLIC    CODE     ---       System_Information
      00FF38D8H   PUBLIC    CODE     ---       TVMode_16
      000107F5H   PUBLIC    XDATA    ---       SPI_DmaRxBuffer
      000108F5H   PUBLIC    XDATA    ---       SPI_DmaTxBuffer
      000109F5H   PUBLIC    XDATA    ---       SPI_DmaTxBuffer2
      0000001DH   PUBLIC    EDATA    BYTE      SPI_DMA_buy
      0000001EH   PUBLIC    EDATA    BYTE      SPI_DMA_USE
      00000020H.0 PUBLIC    BIT      BIT       ?yue_ri?BIT
      00000020H.1 PUBLIC    BIT      BIT       ?OLED_16_16V?BIT
      000003ABH   PUBLIC    EDATA    BYTE      ?OLED_16_16Vabc?BYTE
      00000020H.0 PUBLIC    BIT      BIT       ?OLED_16_16Vabc?BIT
      00000020H.0 PUBLIC    BIT      BIT       ?OLED_16_16V2?BIT
      000000CFH   SFRSYM    DATA     BYTE      SPDAT
      000000D0H   SFRSYM    DATA     BYTE      PSW
      000000A0H.0 SFRSYM    DATA     BIT       RST
      0000009DH   SFRSYM    DATA     BYTE      IRCBAND
      00000097H   SFRSYM    DATA     BYTE      AUXR2
      000000EFH   SFRSYM    DATA     BYTE      AUXINTIF
      000000FDH   SFRSYM    DATA     BYTE      S4CON
      000000ACH   SFRSYM    DATA     BYTE      S3CON
      0000009AH   SFRSYM    DATA     BYTE      S2CON
      000000B7H   SFRSYM    DATA     BYTE      IPH
      000000CDH   SFRSYM    DATA     BYTE      SPSTAT
      000000A0H.5 SFRSYM    DATA     BIT       SCK
      000000DDH   SFRSYM    DATA     BYTE      T4T3M
      00000087H.0 SFRSYM    DATA     BIT       IDL
      000000C1H   SFRSYM    DATA     BYTE      WDT_CONTR
L251 LINKER/LOCATER V4.66.93.0                                                        04/24/2024  23:59:23  PAGE 67


      000000DFH   SFRSYM    DATA     BYTE      IP3
      000000F4H   SFRSYM    DATA     BYTE      USBCON
      000000B5H   SFRSYM    DATA     BYTE      IP2
      000000FFH   SFRSYM    DATA     BYTE      RSTCFG
      000000C7H   SFRSYM    DATA     BYTE      IAP_CONTR
      000000F9H   SFRSYM    DATA     BYTE      LINICR
      0000008EH   SFRSYM    DATA     BYTE      AUXR
      000000AFH   SFRSYM    DATA     BYTE      IE2
      00000088H   SFRSYM    DATA     BYTE      TCON
      00000089H   SFRSYM    DATA     BYTE      TMOD
      00000098H   SFRSYM    DATA     BYTE      SCON
      000000F1H   SFRSYM    DATA     BYTE      CANICR
      00000087H   SFRSYM    DATA     BYTE      PCON
      000000BCH   SFRSYM    DATA     BYTE      ADC_CONTR
      000000E7H   SFRSYM    DATA     BYTE      CMPCR2
      000000E6H   SFRSYM    DATA     BYTE      CMPCR1
      000000A0H.3 SFRSYM    DATA     BIT       SI
      000000DEH   SFRSYM    DATA     BYTE      ADCCFG
      000000B8H   SFRSYM    DATA     BYTE      IP
      0000008FH   SFRSYM    DATA     BYTE      INTCLKO
      000000EEH   SFRSYM    DATA     BYTE      IP3H
      000000B6H   SFRSYM    DATA     BYTE      IP2H
      000000A8H   SFRSYM    DATA     BYTE      IE
      000000BBH   SFRSYM    DATA     BYTE      P_SW3
      000000BAH   SFRSYM    DATA     BYTE      P_SW2
      000000A2H   SFRSYM    DATA     BYTE      P_SW1
      000000CEH   SFRSYM    DATA     BYTE      SPCTL
      000000F8H   SFRSYM    DATA     BYTE      P7
      000000A0H.1 SFRSYM    DATA     BIT       DC
      000000A8H.7 SFRSYM    DATA     BIT       EA
      000000E8H   SFRSYM    DATA     BYTE      P6
      000000C8H   SFRSYM    DATA     BYTE      P5
      000000C0H   SFRSYM    DATA     BYTE      P4
      000000B0H   SFRSYM    DATA     BYTE      P3
      000000A0H   SFRSYM    DATA     BYTE      P2
      00000090H   SFRSYM    DATA     BYTE      P1
      00000080H   SFRSYM    DATA     BYTE      P0

      00FF89E9H   BLOCK     CODE     ---       LVL=0
      00FF89E9H   LINE      CODE     ---       #28
      00FF89E9H   LINE      CODE     ---       #30
      00FF89ECH   LINE      CODE     ---       #31
      00FF89EFH   LINE      CODE     ---       #32
      00FF89F2H   LINE      CODE     ---       #33
      00FF89F5H   LINE      CODE     ---       #34
      00FF89F8H   LINE      CODE     ---       #41
      00FF89FBH   LINE      CODE     ---       #45
      00FF89FEH   LINE      CODE     ---       #46
      00FF8A01H   LINE      CODE     ---       #48
      00FF8A04H   LINE      CODE     ---       #49
      00FF8A07H   LINE      CODE     ---       #51
      00FF8A09H   LINE      CODE     ---       #52
      00FF8A0BH   LINE      CODE     ---       #53
      00FF8A0EH   LINE      CODE     ---       #54
      00FF8A1EH   LINE      CODE     ---       #56
      ---         BLOCKEND  ---      ---       LVL=0

      00FF0016H   BLOCK     CODE     ---       LVL=0
      00FF0016H   LINE      CODE     ---       #66
      00FF0016H   LINE      CODE     ---       #68
      00FF0022H   LINE      CODE     ---       #69
      00FF002BH   LINE      CODE     ---       #70
      00FF0033H   LINE      CODE     ---       #71
      00FF003CH   LINE      CODE     ---       #73
      00FF0047H   LINE      CODE     ---       #74
L251 LINKER/LOCATER V4.66.93.0                                                        04/24/2024  23:59:23  PAGE 68


      00FF004EH   LINE      CODE     ---       #75
      00FF0059H   LINE      CODE     ---       #76
      00FF0060H   LINE      CODE     ---       #79
      00FF0069H   LINE      CODE     ---       #80
      ---         BLOCKEND  ---      ---       LVL=0

      00FF9083H   BLOCK     CODE     ---       LVL=0
      00FF9083H   LINE      CODE     ---       #91
      00FF9083H   LINE      CODE     ---       #93
      00FF9090H   LINE      CODE     ---       #95
      00FF9094H   LINE      CODE     ---       #96
      00FF9097H   LINE      CODE     ---       #97
      00FF909BH   LINE      CODE     ---       #98
      ---         BLOCKEND  ---      ---       LVL=0

      00FF90E4H   BLOCK     CODE     ---       LVL=0
      00FF90E4H   LINE      CODE     ---       #101
      00FF90E4H   LINE      CODE     ---       #104
      00FF90E6H   LINE      CODE     ---       #106
      00FF90E7H   LINE      CODE     ---       #107
      00FF90E8H   LINE      CODE     ---       #108
      00FF90E9H   LINE      CODE     ---       #109
      00FF90EAH   LINE      CODE     ---       #110
      00FF90F1H   LINE      CODE     ---       #112
      00FF90F2H   LINE      CODE     ---       #113
      00FF90F3H   LINE      CODE     ---       #114
      00FF90F4H   LINE      CODE     ---       #115
      00FF90F5H   LINE      CODE     ---       #116
      00FF90FBH   LINE      CODE     ---       #118
      ---         BLOCKEND  ---      ---       LVL=0

      00FF8862H   BLOCK     CODE     ---       LVL=0
      R15         REGSYM    ---      BYTE      num
      00FF8862H   LINE      CODE     ---       #120
      00FF8866H   LINE      CODE     ---       #123
      00FF8869H   LINE      CODE     ---       #124
      00FF886FH   LINE      CODE     ---       #125
      00FF887AH   LINE      CODE     ---       #126
      00FF8880H   LINE      CODE     ---       #128
      00FF8881H   LINE      CODE     ---       #129
      00FF8883H   LINE      CODE     ---       #132
      00FF8889H   LINE      CODE     ---       #133
      00FF8889H   LINE      CODE     ---       #134
      00FF8899H   LINE      CODE     ---       #136
      ---         BLOCKEND  ---      ---       LVL=0

      00FF8E7AH   BLOCK     CODE     ---       LVL=0
      00FF8E7AH   LINE      CODE     ---       #141
      00FF8E7AH   LINE      CODE     ---       #144
      00FF8E80H   LINE      CODE     ---       #146
      00FF8E84H   LINE      CODE     ---       #147
      00FF8E84H   LINE      CODE     ---       #148
      00FF8E86H   LINE      CODE     ---       #151
      00FF8E95H   LINE      CODE     ---       #152
      00FF8E9CH   LINE      CODE     ---       #153
      00FF8E9CH   LINE      CODE     ---       #155
      ---         BLOCKEND  ---      ---       LVL=0

      00FF912AH   BLOCK     CODE     ---       LVL=0
      R15         REGSYM    ---      BYTE      out
      00FF912EH   BLOCK     CODE     NEAR LAB  LVL=1
      ---         BLOCKEND  ---      ---       LVL=1
      00FF912AH   LINE      CODE     ---       #166
      00FF912EH   LINE      CODE     ---       #167
      00FF912EH   LINE      CODE     ---       #168
L251 LINKER/LOCATER V4.66.93.0                                                        04/24/2024  23:59:23  PAGE 69


      00FF912EH   LINE      CODE     ---       #169
      00FF9131H   LINE      CODE     ---       #170
      00FF9134H   LINE      CODE     ---       #171
      00FF913AH   LINE      CODE     ---       #172
      00FF913DH   LINE      CODE     ---       #173
      ---         BLOCKEND  ---      ---       LVL=0

      00FF927FH   BLOCK     CODE     ---       LVL=0
      R15         REGSYM    ---      BYTE      dat
      00FF927FH   LINE      CODE     ---       #175
      00FF9283H   LINE      CODE     ---       #177
      00FF9286H   LINE      CODE     ---       #178
      00FF928BH   LINE      CODE     ---       #179
      ---         BLOCKEND  ---      ---       LVL=0

      00FF9209H   BLOCK     CODE     ---       LVL=0
      R15         REGSYM    ---      BYTE      dat1
      00FF9209H   LINE      CODE     ---       #183
      00FF920DH   LINE      CODE     ---       #185
      00FF9210H   LINE      CODE     ---       #186
      00FF9212H   LINE      CODE     ---       #187
      00FF9217H   LINE      CODE     ---       #188
      00FF9219H   LINE      CODE     ---       #189
      ---         BLOCKEND  ---      ---       LVL=0

      00FF8BF5H   BLOCK     CODE     ---       LVL=0
      R15         REGSYM    ---      BYTE      bmp_dat
      00FF8BFBH   BLOCK     CODE     NEAR LAB  LVL=1
      R14         REGSYM    ---      BYTE      y
      R13         REGSYM    ---      BYTE      x
      ---         BLOCKEND  ---      ---       LVL=1
      00FF8BF5H   LINE      CODE     ---       #192
      00FF8BFBH   LINE      CODE     ---       #193
      00FF8BFBH   LINE      CODE     ---       #195
      00FF8BFDH   LINE      CODE     ---       #197
      00FF8C04H   LINE      CODE     ---       #198
      00FF8C08H   LINE      CODE     ---       #199
      00FF8C0DH   LINE      CODE     ---       #200
      00FF8C0FH   LINE      CODE     ---       #201
      00FF8C1BH   LINE      CODE     ---       #202
      00FF8C22H   LINE      CODE     ---       #203
      ---         BLOCKEND  ---      ---       LVL=0

      00FF8E9DH   BLOCK     CODE     ---       LVL=0
      R15         REGSYM    ---      BYTE      x
      R7          REGSYM    ---      BYTE      y
      00FF8E9DH   LINE      CODE     ---       #204
      00FF8EA1H   LINE      CODE     ---       #206
      00FF8EA8H   LINE      CODE     ---       #207
      00FF8EB4H   LINE      CODE     ---       #208
      00FF8EBBH   LINE      CODE     ---       #209
      ---         BLOCKEND  ---      ---       LVL=0

      00FF73E2H   BLOCK     CODE     ---       LVL=0
      00FF73E2H   LINE      CODE     ---       #211
      00FF73E2H   LINE      CODE     ---       #214
      00FF73E4H   LINE      CODE     ---       #215
      00FF73E6H   LINE      CODE     ---       #217
      00FF73EDH   LINE      CODE     ---       #218
      00FF73EFH   LINE      CODE     ---       #220
      00FF73F6H   LINE      CODE     ---       #221
      00FF73F8H   LINE      CODE     ---       #223
      00FF73FFH   LINE      CODE     ---       #224
      00FF7401H   LINE      CODE     ---       #225
      00FF7406H   LINE      CODE     ---       #226
L251 LINKER/LOCATER V4.66.93.0                                                        04/24/2024  23:59:23  PAGE 70


      00FF740AH   LINE      CODE     ---       #227
      00FF740FH   LINE      CODE     ---       #228
      00FF7414H   LINE      CODE     ---       #229
      00FF7419H   LINE      CODE     ---       #230
      00FF741EH   LINE      CODE     ---       #231
      00FF7423H   LINE      CODE     ---       #232
      00FF7428H   LINE      CODE     ---       #233
      00FF742DH   LINE      CODE     ---       #234
      00FF7432H   LINE      CODE     ---       #235
      00FF7437H   LINE      CODE     ---       #236
      00FF743CH   LINE      CODE     ---       #237
      00FF7440H   LINE      CODE     ---       #238
      00FF7445H   LINE      CODE     ---       #239
      00FF744AH   LINE      CODE     ---       #240
      00FF744FH   LINE      CODE     ---       #241
      00FF7454H   LINE      CODE     ---       #242
      00FF7459H   LINE      CODE     ---       #243
      00FF745EH   LINE      CODE     ---       #244
      00FF7463H   LINE      CODE     ---       #245
      00FF7468H   LINE      CODE     ---       #246
      00FF746DH   LINE      CODE     ---       #247
      00FF7472H   LINE      CODE     ---       #248
      00FF7477H   LINE      CODE     ---       #249
      00FF747CH   LINE      CODE     ---       #250
      00FF7481H   LINE      CODE     ---       #251
      00FF7486H   LINE      CODE     ---       #252
      00FF748BH   LINE      CODE     ---       #253
      00FF748FH   LINE      CODE     ---       #254
      ---         BLOCKEND  ---      ---       LVL=0

      00FF83E1H   BLOCK     CODE     ---       LVL=0
      R9          REGSYM    ---      BYTE      x
      R0          REGSYM    ---      BYTE      y
      R1          REGSYM    ---      BYTE      ee
      00FF83E9H   BLOCK     CODE     NEAR LAB  LVL=1
      R8          REGSYM    ---      BYTE      i
      REG=3       REGSYM    ---      ---       SPI_dat
      ---         BLOCKEND  ---      ---       LVL=1
      00FF83E1H   LINE      CODE     ---       #261
      00FF83E9H   LINE      CODE     ---       #262
      00FF83E9H   LINE      CODE     ---       #265
      00FF83EFH   LINE      CODE     ---       #267
      00FF83F7H   LINE      CODE     ---       #268
      00FF83F9H   LINE      CODE     ---       #271
      00FF8401H   LINE      CODE     ---       #272
      00FF8401H   LINE      CODE     ---       #273
      00FF8403H   LINE      CODE     ---       #275
      00FF8421H   LINE      CODE     ---       #276
      00FF8428H   LINE      CODE     ---       #277
      00FF842FH   LINE      CODE     ---       #278
      00FF8432H   LINE      CODE     ---       #279
      00FF8437H   LINE      CODE     ---       #284
      ---         BLOCKEND  ---      ---       LVL=0

      00FF70E6H   BLOCK     CODE     ---       LVL=0
      R13         REGSYM    ---      BYTE      x
      R14         REGSYM    ---      BYTE      y
      R15         REGSYM    ---      BYTE      ee
      00FF70EEH   BLOCK     CODE     NEAR LAB  LVL=1
      R12         REGSYM    ---      BYTE      i
      000003ABH   SYMBOL    EDATA    BYTE      k
      000003ACH   SYMBOL    EDATA    ---       SPI_dat
      ---         BLOCKEND  ---      ---       LVL=1
      00FF70E6H   LINE      CODE     ---       #285
      00FF70EEH   LINE      CODE     ---       #286
L251 LINKER/LOCATER V4.66.93.0                                                        04/24/2024  23:59:23  PAGE 71


      00FF70EEH   LINE      CODE     ---       #288
      00FF70F3H   LINE      CODE     ---       #290
      00FF70F9H   LINE      CODE     ---       #292
      00FF7101H   LINE      CODE     ---       #293
      00FF7103H   LINE      CODE     ---       #296
      00FF710FH   LINE      CODE     ---       #297
      00FF710FH   LINE      CODE     ---       #298
      00FF7111H   LINE      CODE     ---       #300
      00FF7131H   LINE      CODE     ---       #301
      00FF7138H   LINE      CODE     ---       #302
      00FF713FH   LINE      CODE     ---       #303
      00FF7142H   LINE      CODE     ---       #304
      00FF7147H   LINE      CODE     ---       #307
      00FF714DH   LINE      CODE     ---       #309
      00FF7155H   LINE      CODE     ---       #310
      00FF7157H   LINE      CODE     ---       #313
      00FF7163H   LINE      CODE     ---       #314
      00FF7163H   LINE      CODE     ---       #315
      00FF7165H   LINE      CODE     ---       #317
      00FF7189H   LINE      CODE     ---       #318
      00FF7192H   LINE      CODE     ---       #319
      00FF7199H   LINE      CODE     ---       #320
      00FF71A2H   LINE      CODE     ---       #321
      00FF71A5H   LINE      CODE     ---       #322
      00FF71AAH   LINE      CODE     ---       #329
      ---         BLOCKEND  ---      ---       LVL=0

      00FF658BH   BLOCK     CODE     ---       LVL=0
      WR12        REGSYM    ---      INT       k
      R14         REGSYM    ---      BYTE      x
      R15         REGSYM    ---      BYTE      y
      00FF6593H   BLOCK     CODE     NEAR LAB  LVL=1
      000003ABH   SYMBOL    EDATA    BYTE      i
      000003ACH   SYMBOL    EDATA    BYTE      x1
      ---         BLOCKEND  ---      ---       LVL=1
      00FF658BH   LINE      CODE     ---       #332
      00FF6593H   LINE      CODE     ---       #333
      00FF6593H   LINE      CODE     ---       #335
      00FF6597H   LINE      CODE     ---       #336
      00FF659CH   LINE      CODE     ---       #337
      00FF65A1H   LINE      CODE     ---       #339
      00FF65ADH   LINE      CODE     ---       #340
      00FF65BBH   LINE      CODE     ---       #341
      00FF65C7H   LINE      CODE     ---       #342
      00FF65CEH   LINE      CODE     ---       #343
      00FF65D4H   LINE      CODE     ---       #346
      00FF65DEH   LINE      CODE     ---       #347
      00FF65E6H   LINE      CODE     ---       #348
      00FF65E8H   LINE      CODE     ---       #351
      00FF65F2H   LINE      CODE     ---       #352
      00FF65F2H   LINE      CODE     ---       #353
      00FF65FAH   LINE      CODE     ---       #356
      00FF6610H   LINE      CODE     ---       #357
      00FF6618H   LINE      CODE     ---       #359
      00FF6637H   LINE      CODE     ---       #360
      00FF663FH   LINE      CODE     ---       #362
      00FF665EH   LINE      CODE     ---       #363
      00FF6666H   LINE      CODE     ---       #364
      00FF667CH   LINE      CODE     ---       #366
      ---         BLOCKEND  ---      ---       LVL=0
      WR12        REGSYM    ---      WORD      ee
      R15         REGSYM    ---      BYTE      y

      00FF87E9H   BLOCK     CODE     ---       LVL=0
      R15         REGSYM    ---      BYTE      x
L251 LINKER/LOCATER V4.66.93.0                                                        04/24/2024  23:59:23  PAGE 72


      R14         REGSYM    ---      BYTE      ee
      00000020H.0 SYMBOL    BIT      BIT       g
      00FF87E9H   LINE      CODE     ---       #383
      00FF87EFH   LINE      CODE     ---       #385
      00FF8802H   LINE      CODE     ---       #386
      00FF8814H   LINE      CODE     ---       #387
      00FF8823H   LINE      CODE     ---       #388
      ---         BLOCKEND  ---      ---       LVL=0

      00FF8134H   BLOCK     CODE     ---       LVL=0
      R15         REGSYM    ---      BYTE      t
      R14         REGSYM    ---      BYTE      y
      00FF813AH   BLOCK     CODE     NEAR LAB  LVL=1
      000003ABH   SYMBOL    EDATA    BYTE      i
      R12         REGSYM    ---      BYTE      j
      R13         REGSYM    ---      BYTE      k
      ---         BLOCKEND  ---      ---       LVL=1
      00FF8134H   LINE      CODE     ---       #396
      00FF813AH   LINE      CODE     ---       #397
      00FF813AH   LINE      CODE     ---       #401
      00FF813EH   LINE      CODE     ---       #403
      00FF8141H   LINE      CODE     ---       #405
      00FF814AH   LINE      CODE     ---       #406
      00FF814FH   LINE      CODE     ---       #408
      00FF8175H   LINE      CODE     ---       #409
      00FF8181H   LINE      CODE     ---       #410
      00FF8188H   LINE      CODE     ---       #411
      00FF819CH   LINE      CODE     ---       #412
      ---         BLOCKEND  ---      ---       LVL=0

      00FF7E7DH   BLOCK     CODE     ---       LVL=0
      R13         REGSYM    ---      BYTE      x
      R14         REGSYM    ---      BYTE      y
      R15         REGSYM    ---      BYTE      adde
      00FF7E85H   BLOCK     CODE     NEAR LAB  LVL=1
      R12         REGSYM    ---      BYTE      i
      000003ABH   SYMBOL    EDATA    BYTE      j
      000003ACH   SYMBOL    EDATA    ---       SPI_dat
      ---         BLOCKEND  ---      ---       LVL=1
      00FF7E7DH   LINE      CODE     ---       #414
      00FF7E85H   LINE      CODE     ---       #415
      00FF7E85H   LINE      CODE     ---       #416
      00FF7E85H   LINE      CODE     ---       #417
      00FF7E85H   LINE      CODE     ---       #419
      00FF7E87H   LINE      CODE     ---       #420
      00FF7E8CH   LINE      CODE     ---       #422
      00FF7E92H   LINE      CODE     ---       #424
      00FF7E9AH   LINE      CODE     ---       #425
      00FF7E9CH   LINE      CODE     ---       #428
      00FF7EA8H   LINE      CODE     ---       #429
      00FF7EA8H   LINE      CODE     ---       #430
      00FF7EAAH   LINE      CODE     ---       #432
      00FF7ECAH   LINE      CODE     ---       #433
      00FF7ED1H   LINE      CODE     ---       #434
      00FF7ED8H   LINE      CODE     ---       #435
      00FF7EDBH   LINE      CODE     ---       #436
      00FF7EE0H   LINE      CODE     ---       #437
      00FF7EE2H   LINE      CODE     ---       #438
      00FF7EE4H   LINE      CODE     ---       #439
      00FF7EF6H   LINE      CODE     ---       #440
      ---         BLOCKEND  ---      ---       LVL=0

      00FF47E2H   BLOCK     CODE     ---       LVL=0
      R13         REGSYM    ---      BYTE      x
      R12         REGSYM    ---      BYTE      y
L251 LINKER/LOCATER V4.66.93.0                                                        04/24/2024  23:59:23  PAGE 73


      WR8         REGSYM    ---      WORD      adde
      R14         REGSYM    ---      BYTE      devia1
      R15         REGSYM    ---      BYTE      devia2
      00FF47EEH   BLOCK     CODE     NEAR LAB  LVL=1
      000003ADH   SYMBOL    EDATA    BYTE      i
      ---         BLOCKEND  ---      ---       LVL=1
      00FF47E2H   LINE      CODE     ---       #446
      00FF47EEH   LINE      CODE     ---       #447
      00FF47EEH   LINE      CODE     ---       #448
      00FF47F3H   LINE      CODE     ---       #449
      00FF47F3H   LINE      CODE     ---       #450
      00FF47FAH   LINE      CODE     ---       #451
      00FF4802H   LINE      CODE     ---       #452
      00FF4807H   LINE      CODE     ---       #454
      00FF4811H   LINE      CODE     ---       #455
      00FF4813H   LINE      CODE     ---       #456
      00FF4813H   LINE      CODE     ---       #457
      00FF482BH   LINE      CODE     ---       #459
      00FF4830H   LINE      CODE     ---       #461
      00FF483CH   LINE      CODE     ---       #462
      00FF4844H   LINE      CODE     ---       #464
      00FF484AH   LINE      CODE     ---       #466
      00FF484FH   LINE      CODE     ---       #468
      00FF4875H   LINE      CODE     ---       #469
      00FF4881H   LINE      CODE     ---       #470
      00FF4884H   LINE      CODE     ---       #471
      00FF488AH   LINE      CODE     ---       #473
      00FF488FH   LINE      CODE     ---       #475
      00FF48BFH   LINE      CODE     ---       #476
      00FF48CBH   LINE      CODE     ---       #477
      00FF48D0H   LINE      CODE     ---       #479
      00FF48F6H   LINE      CODE     ---       #480
      00FF4902H   LINE      CODE     ---       #481
      00FF4905H   LINE      CODE     ---       #482
      00FF490EH   LINE      CODE     ---       #484
      00FF4913H   LINE      CODE     ---       #486
      00FF493BH   LINE      CODE     ---       #487
      00FF4947H   LINE      CODE     ---       #488
      00FF494CH   LINE      CODE     ---       #490
      00FF497CH   LINE      CODE     ---       #491
      00FF4988H   LINE      CODE     ---       #492
      00FF498DH   LINE      CODE     ---       #494
      00FF49B3H   LINE      CODE     ---       #495
      00FF49BFH   LINE      CODE     ---       #496
      00FF49BFH   LINE      CODE     ---       #497
      00FF49C6H   LINE      CODE     ---       #498
      00FF49CCH   LINE      CODE     ---       #500
      00FF49D9H   LINE      CODE     ---       #501
      00FF49E8H   LINE      CODE     ---       #502
      ---         BLOCKEND  ---      ---       LVL=0

      00FF77D9H   BLOCK     CODE     ---       LVL=0
      R12         REGSYM    ---      BYTE      x
      000003ADH   SYMBOL    EDATA    BYTE      y
      R15         REGSYM    ---      BYTE      adde
      R13         REGSYM    ---      BYTE      devia1
      R14         REGSYM    ---      BYTE      devia2
      00FF77E7H   BLOCK     CODE     NEAR LAB  LVL=1
      000003AEH   SYMBOL    EDATA    BYTE      i
      000003AFH   SYMBOL    EDATA    BYTE      j
      ---         BLOCKEND  ---      ---       LVL=1
      00FF77D9H   LINE      CODE     ---       #510
      00FF77E7H   LINE      CODE     ---       #511
      00FF77E7H   LINE      CODE     ---       #512
      00FF77ECH   LINE      CODE     ---       #513
L251 LINKER/LOCATER V4.66.93.0                                                        04/24/2024  23:59:23  PAGE 74


      00FF77F0H   LINE      CODE     ---       #515
      00FF77F7H   LINE      CODE     ---       #516
      00FF77FFH   LINE      CODE     ---       #517
      00FF7804H   LINE      CODE     ---       #519
      00FF780CH   LINE      CODE     ---       #520
      00FF780EH   LINE      CODE     ---       #521
      00FF780EH   LINE      CODE     ---       #523
      00FF781DH   LINE      CODE     ---       #525
      00FF781FH   LINE      CODE     ---       #526
      00FF7824H   LINE      CODE     ---       #528
      00FF782DH   LINE      CODE     ---       #529
      00FF7833H   LINE      CODE     ---       #531
      00FF784FH   LINE      CODE     ---       #532
      00FF785EH   LINE      CODE     ---       #533
      00FF7860H   LINE      CODE     ---       #534
      00FF7869H   LINE      CODE     ---       #535
      00FF7875H   LINE      CODE     ---       #536
      ---         BLOCKEND  ---      ---       LVL=0

      00FF6CD7H   BLOCK     CODE     ---       LVL=0
      000003ABH   SYMBOL    EDATA    BYTE      x
      R13         REGSYM    ---      BYTE      y
      R15         REGSYM    ---      BYTE      addr
      R12         REGSYM    ---      BYTE      devia1
      R14         REGSYM    ---      BYTE      devia2
      00FF6CE5H   BLOCK     CODE     NEAR LAB  LVL=1
      000003ACH   SYMBOL    EDATA    BYTE      i
      000003ADH   SYMBOL    EDATA    BYTE      j
      000003AEH   SYMBOL    EDATA    BYTE      k
      000003AFH   SYMBOL    EDATA    ---       SPI_dat
      ---         BLOCKEND  ---      ---       LVL=1
      00FF6CD7H   LINE      CODE     ---       #539
      00FF6CE5H   LINE      CODE     ---       #540
      00FF6CE5H   LINE      CODE     ---       #541
      00FF6CEAH   LINE      CODE     ---       #542
      00FF6CEEH   LINE      CODE     ---       #543
      00FF6CF2H   LINE      CODE     ---       #545
      00FF6D0EH   LINE      CODE     ---       #547
      00FF6D12H   LINE      CODE     ---       #548
      00FF6D17H   LINE      CODE     ---       #551
      00FF6D1CH   LINE      CODE     ---       #552
      00FF6D22H   LINE      CODE     ---       #554
      00FF6D2AH   LINE      CODE     ---       #555
      00FF6D2CH   LINE      CODE     ---       #558
      00FF6D38H   LINE      CODE     ---       #559
      00FF6D38H   LINE      CODE     ---       #560
      00FF6D3EH   LINE      CODE     ---       #562
      00FF6D66H   LINE      CODE     ---       #563
      00FF6D6FH   LINE      CODE     ---       #564
      00FF6D7EH   LINE      CODE     ---       #565
      00FF6D87H   LINE      CODE     ---       #566
      00FF6D8AH   LINE      CODE     ---       #567
      00FF6D92H   LINE      CODE     ---       #568
      00FF6D94H   LINE      CODE     ---       #569
      00FF6D96H   LINE      CODE     ---       #570
      00FF6DA7H   LINE      CODE     ---       #571
      ---         BLOCKEND  ---      ---       LVL=0
      R13         REGSYM    ---      BYTE      i
      R14         REGSYM    ---      BYTE      j

      00FF71ADH   BLOCK     CODE     ---       LVL=0
      WR14        REGSYM    ---      WORD      num
      WR2         REGSYM    ---      WORD      jx
      00FF71B3H   BLOCK     CODE     NEAR LAB  LVL=1
      R13         REGSYM    ---      BYTE      i
L251 LINKER/LOCATER V4.66.93.0                                                        04/24/2024  23:59:23  PAGE 75


      000003ABH   SYMBOL    EDATA    BYTE      j
      R12         REGSYM    ---      BYTE      k
      ---         BLOCKEND  ---      ---       LVL=1
      00FF71ADH   LINE      CODE     ---       #617
      00FF71B3H   LINE      CODE     ---       #618
      00FF71B3H   LINE      CODE     ---       #622
      00FF71BFH   LINE      CODE     ---       #623
      00FF71C7H   LINE      CODE     ---       #624
      00FF71CCH   LINE      CODE     ---       #626
      00FF71D0H   LINE      CODE     ---       #628
      00FF71D5H   LINE      CODE     ---       #629
      00FF71DFH   LINE      CODE     ---       #630
      00FF71E9H   LINE      CODE     ---       #631
      00FF71EDH   LINE      CODE     ---       #633
      00FF71F2H   LINE      CODE     ---       #634
      00FF71F8H   LINE      CODE     ---       #636
      00FF71FDH   LINE      CODE     ---       #637
      00FF720FH   LINE      CODE     ---       #638
      00FF7213H   LINE      CODE     ---       #640
      00FF721AH   LINE      CODE     ---       #641
      00FF721CH   LINE      CODE     ---       #644
      00FF7227H   LINE      CODE     ---       #645
      00FF7227H   LINE      CODE     ---       #647
      00FF723BH   LINE      CODE     ---       #648
      00FF7245H   LINE      CODE     ---       #650
      00FF724DH   LINE      CODE     ---       #651
      00FF724FH   LINE      CODE     ---       #654
      00FF725BH   LINE      CODE     ---       #655
      00FF725BH   LINE      CODE     ---       #656
      00FF726DH   LINE      CODE     ---       #658
      ---         BLOCKEND  ---      ---       LVL=0

      00FF82CBH   BLOCK     CODE     ---       LVL=0
      00FF82CFH   BLOCK     CODE     NEAR LAB  LVL=1
      R12         REGSYM    ---      BYTE      k
      R13         REGSYM    ---      BYTE      q
      R15         REGSYM    ---      BYTE      i
      ---         BLOCKEND  ---      ---       LVL=1
      00FF82CBH   LINE      CODE     ---       #660
      00FF82CFH   LINE      CODE     ---       #661
      00FF82CFH   LINE      CODE     ---       #665
      00FF82D1H   LINE      CODE     ---       #667
      00FF82DAH   LINE      CODE     ---       #668
      00FF82DCH   LINE      CODE     ---       #670
      00FF82E0H   LINE      CODE     ---       #672
      00FF82E3H   LINE      CODE     ---       #673
      00FF82E5H   LINE      CODE     ---       #674
      00FF82EAH   LINE      CODE     ---       #676
      00FF82EDH   LINE      CODE     ---       #677
      00FF82EFH   LINE      CODE     ---       #680
      00FF82F1H   LINE      CODE     ---       #681
      00FF82F1H   LINE      CODE     ---       #682
      00FF830EH   LINE      CODE     ---       #684
      00FF8311H   LINE      CODE     ---       #685
      00FF8311H   LINE      CODE     ---       #686
      00FF8316H   LINE      CODE     ---       #687
      00FF831DH   LINE      CODE     ---       #688
      00FF8324H   LINE      CODE     ---       #689
      ---         BLOCKEND  ---      ---       LVL=0

      00FF916BH   BLOCK     CODE     ---       LVL=0
      R11         REGSYM    ---      BYTE      x
      R10         REGSYM    ---      BYTE      y
      00FF916DH   BLOCK     CODE     NEAR LAB  LVL=1
      R15         REGSYM    ---      BYTE      i
L251 LINKER/LOCATER V4.66.93.0                                                        04/24/2024  23:59:23  PAGE 76


      ---         BLOCKEND  ---      ---       LVL=1
      00FF916BH   LINE      CODE     ---       #702
      00FF916DH   LINE      CODE     ---       #703
      00FF916DH   LINE      CODE     ---       #704
      00FF916DH   LINE      CODE     ---       #705
      00FF9170H   LINE      CODE     ---       #706
      00FF9172H   LINE      CODE     ---       #708
      00FF9176H   LINE      CODE     ---       #709
      00FF917DH   LINE      CODE     ---       #711
      ---         BLOCKEND  ---      ---       LVL=0

      00FF7495H   BLOCK     CODE     ---       LVL=0
      REG=7       REGSYM    ---      ---       dat
      WR8         REGSYM    ---      WORD      adde
      R14         REGSYM    ---      BYTE      x
      R15         REGSYM    ---      BYTE      y
      00000020H.1 SYMBOL    BIT      BIT       p
      00FF749FH   BLOCK     CODE     NEAR LAB  LVL=1
      R7          REGSYM    ---      BYTE      i
      R6          REGSYM    ---      BYTE      j
      000003AFH   SYMBOL    EDATA    BYTE      k
      000003B0H   SYMBOL    EDATA    ---       SPI_dat
      ---         BLOCKEND  ---      ---       LVL=1
      00FF7495H   LINE      CODE     ---       #714
      00FF749FH   LINE      CODE     ---       #715
      00FF749FH   LINE      CODE     ---       #716
      00FF749FH   LINE      CODE     ---       #717
      00FF749FH   LINE      CODE     ---       #718
      00FF749FH   LINE      CODE     ---       #720
      00FF74A1H   LINE      CODE     ---       #721
      00FF74A5H   LINE      CODE     ---       #723
      00FF74AAH   LINE      CODE     ---       #724
      00FF74B0H   LINE      CODE     ---       #726
      00FF74B8H   LINE      CODE     ---       #727
      00FF74BAH   LINE      CODE     ---       #730
      00FF74C6H   LINE      CODE     ---       #731
      00FF74C6H   LINE      CODE     ---       #732
      00FF74C8H   LINE      CODE     ---       #734
      00FF74CAH   LINE      CODE     ---       #736
      00FF74CDH   LINE      CODE     ---       #738
      00FF74ECH   LINE      CODE     ---       #739
      00FF74EEH   LINE      CODE     ---       #742
      00FF750FH   LINE      CODE     ---       #743
      00FF750FH   LINE      CODE     ---       #744
      00FF7518H   LINE      CODE     ---       #745
      00FF751EH   LINE      CODE     ---       #746
      00FF752AH   LINE      CODE     ---       #747
      00FF7531H   LINE      CODE     ---       #748
      00FF7534H   LINE      CODE     ---       #749
      00FF753CH   LINE      CODE     ---       #750
      ---         BLOCKEND  ---      ---       LVL=0

      00FF3ED6H   BLOCK     CODE     ---       LVL=0
      REG=3       REGSYM    ---      ---       dat
      000003AFH   SYMBOL    EDATA    WORD      adde
      000003B1H   SYMBOL    EDATA    BYTE      x
      000003B2H   SYMBOL    EDATA    BYTE      y
      000003B3H   SYMBOL    EDATA    BYTE      c
      00000020H.0 SYMBOL    BIT      BIT       jj
      000003B4H   SYMBOL    EDATA    BYTE      Number
      00FF3EEAH   BLOCK     CODE     NEAR LAB  LVL=1
      000003B5H   SYMBOL    EDATA    BYTE      i
      000003B6H   SYMBOL    EDATA    BYTE      j
      000003B7H   SYMBOL    EDATA    WORD      t
      ---         BLOCKEND  ---      ---       LVL=1
L251 LINKER/LOCATER V4.66.93.0                                                        04/24/2024  23:59:23  PAGE 77


      00FF3ED6H   LINE      CODE     ---       #755
      00FF3EEAH   LINE      CODE     ---       #756
      00FF3EEAH   LINE      CODE     ---       #757
      00FF3EEFH   LINE      CODE     ---       #758
      00FF3EEFH   LINE      CODE     ---       #759
      00FF3EEFH   LINE      CODE     ---       #761
      00FF3EFBH   LINE      CODE     ---       #762
      00FF3F03H   LINE      CODE     ---       #763
      00FF3F11H   LINE      CODE     ---       #764
      00FF3F25H   LINE      CODE     ---       #765
      00FF3F31H   LINE      CODE     ---       #767
      00FF3F38H   LINE      CODE     ---       #768
      00FF3F3BH   LINE      CODE     ---       #770
      00FF3F40H   LINE      CODE     ---       #772
      00FF3F43H   LINE      CODE     ---       #774
      00FF3F6FH   LINE      CODE     ---       #775
      00FF3F7AH   LINE      CODE     ---       #776
      00FF3F7CH   LINE      CODE     ---       #779
      00FF3F9AH   LINE      CODE     ---       #780
      00FF3FAAH   LINE      CODE     ---       #781
      00FF3FAAH   LINE      CODE     ---       #783
      00FF3FB6H   LINE      CODE     ---       #785
      00FF3FD1H   LINE      CODE     ---       #786
      00FF3FD1H   LINE      CODE     ---       #787
      00FF3FDAH   LINE      CODE     ---       #788
      00FF3FEEH   LINE      CODE     ---       #789
      00FF3FF4H   LINE      CODE     ---       #790
      00FF4000H   LINE      CODE     ---       #792
      00FF4007H   LINE      CODE     ---       #793
      00FF400AH   LINE      CODE     ---       #795
      00FF400FH   LINE      CODE     ---       #797
      00FF4012H   LINE      CODE     ---       #799
      00FF4030H   LINE      CODE     ---       #800
      00FF403BH   LINE      CODE     ---       #801
      00FF403DH   LINE      CODE     ---       #804
      00FF406CH   LINE      CODE     ---       #805
      00FF4082H   LINE      CODE     ---       #806
      00FF4082H   LINE      CODE     ---       #807
      00FF408EH   LINE      CODE     ---       #808
      00FF40A9H   LINE      CODE     ---       #809
      00FF40A9H   LINE      CODE     ---       #810
      00FF40B2H   LINE      CODE     ---       #811
      00FF40C2H   LINE      CODE     ---       #812
      00FF40CBH   LINE      CODE     ---       #814
      00FF40D2H   LINE      CODE     ---       #815
      00FF40D4H   LINE      CODE     ---       #817
      00FF40D9H   LINE      CODE     ---       #819
      00FF40DCH   LINE      CODE     ---       #822
      00FF40DCH   LINE      CODE     ---       #825
      00FF40FAH   LINE      CODE     ---       #826
      00FF4112H   LINE      CODE     ---       #827
      00FF4112H   LINE      CODE     ---       #828
      00FF411EH   LINE      CODE     ---       #829
      00FF4136H   LINE      CODE     ---       #832
      ---         BLOCKEND  ---      ---       LVL=0

      00FF75E8H   BLOCK     CODE     ---       LVL=0
      R7          REGSYM    ---      BYTE      i
      00FF75EAH   BLOCK     CODE     NEAR LAB  LVL=1
      REG=0       REGSYM    ---      ---       pp
      ---         BLOCKEND  ---      ---       LVL=1
      00FF75E8H   LINE      CODE     ---       #957
      00FF75EAH   LINE      CODE     ---       #958
      00FF75EAH   LINE      CODE     ---       #961
      00FF7620H   LINE      CODE     ---       #963
L251 LINKER/LOCATER V4.66.93.0                                                        04/24/2024  23:59:23  PAGE 78


      00FF7620H   LINE      CODE     ---       #964
      00FF7620H   LINE      CODE     ---       #965
      00FF7622H   LINE      CODE     ---       #966
      00FF7622H   LINE      CODE     ---       #967
      00FF7622H   LINE      CODE     ---       #968
      00FF7624H   LINE      CODE     ---       #969
      00FF7624H   LINE      CODE     ---       #970
      00FF762CH   LINE      CODE     ---       #971
      00FF762EH   LINE      CODE     ---       #972
      00FF762EH   LINE      CODE     ---       #973
      00FF7636H   LINE      CODE     ---       #974
      00FF7638H   LINE      CODE     ---       #975
      00FF7638H   LINE      CODE     ---       #976
      00FF7640H   LINE      CODE     ---       #977
      00FF7642H   LINE      CODE     ---       #978
      00FF7642H   LINE      CODE     ---       #979
      00FF764AH   LINE      CODE     ---       #980
      00FF764CH   LINE      CODE     ---       #984
      00FF764CH   LINE      CODE     ---       #985
      00FF7654H   LINE      CODE     ---       #986
      00FF7656H   LINE      CODE     ---       #987
      00FF7656H   LINE      CODE     ---       #988
      00FF765EH   LINE      CODE     ---       #989
      00FF7660H   LINE      CODE     ---       #990
      00FF7660H   LINE      CODE     ---       #991
      00FF7668H   LINE      CODE     ---       #992
      00FF766AH   LINE      CODE     ---       #995
      00FF766AH   LINE      CODE     ---       #996
      00FF7672H   LINE      CODE     ---       #997
      00FF7674H   LINE      CODE     ---       #1002
      00FF7674H   LINE      CODE     ---       #1003
      00FF7678H   LINE      CODE     ---       #1004
      00FF767AH   LINE      CODE     ---       #1007
      00FF767AH   LINE      CODE     ---       #1008
      00FF7682H   LINE      CODE     ---       #1009
      00FF7684H   LINE      CODE     ---       #1011
      00FF7684H   LINE      CODE     ---       #1012
      00FF768CH   LINE      CODE     ---       #1013
      00FF768CH   LINE      CODE     ---       #1015
      00FF768CH   LINE      CODE     ---       #1016
      00FF768EH   LINE      CODE     ---       #1018
      ---         BLOCKEND  ---      ---       LVL=0

      00FF8A1FH   BLOCK     CODE     ---       LVL=0
      000003ABH   SYMBOL    EDATA    ---       dat
      WR14        REGSYM    ---      WORD      adde
      R12         REGSYM    ---      BYTE      x
      R13         REGSYM    ---      BYTE      y
      00000020H.0 SYMBOL    BIT      BIT       p
      00FF8A1FH   LINE      CODE     ---       #1027
      00FF8A2BH   LINE      CODE     ---       #1030
      00FF8A36H   LINE      CODE     ---       #1031
      00FF8A38H   LINE      CODE     ---       #1032
      00FF8A4BH   LINE      CODE     ---       #1033
      00FF8A52H   LINE      CODE     ---       #1035
      ---         BLOCKEND  ---      ---       LVL=0

      00FF8D97H   BLOCK     CODE     ---       LVL=0
      R1          REGSYM    ---      BYTE      p
      R10         REGSYM    ---      BYTE      a
      00FF8D9BH   BLOCK     CODE     NEAR LAB  LVL=1
      R7          REGSYM    ---      BYTE      i
      R0          REGSYM    ---      BYTE      j
      ---         BLOCKEND  ---      ---       LVL=1
      00FF8D97H   LINE      CODE     ---       #1038
L251 LINKER/LOCATER V4.66.93.0                                                        04/24/2024  23:59:23  PAGE 79


      00FF8D9BH   LINE      CODE     ---       #1039
      00FF8D9BH   LINE      CODE     ---       #1042
      00FF8DA0H   LINE      CODE     ---       #1044
      00FF8DA4H   LINE      CODE     ---       #1046
      00FF8DA6H   LINE      CODE     ---       #1048
      00FF8DB3H   LINE      CODE     ---       #1049
      00FF8DB9H   LINE      CODE     ---       #1050
      00FF8DBFH   LINE      CODE     ---       #1051
      ---         BLOCKEND  ---      ---       LVL=0

      00FF85C3H   BLOCK     CODE     ---       LVL=0
      R7          REGSYM    ---      BYTE      a
      00FF85C7H   BLOCK     CODE     NEAR LAB  LVL=1
      R6          REGSYM    ---      BYTE      i
      R7          REGSYM    ---      BYTE      j
      REG=3       REGSYM    ---      ---       pa
      ---         BLOCKEND  ---      ---       LVL=1
      00FF85C3H   LINE      CODE     ---       #1054
      00FF85C7H   LINE      CODE     ---       #1055
      00FF85C7H   LINE      CODE     ---       #1060
      00FF85CCH   LINE      CODE     ---       #1062
      00FF85D4H   LINE      CODE     ---       #1063
      00FF85D6H   LINE      CODE     ---       #1066
      00FF85DEH   LINE      CODE     ---       #1068
      00FF85DEH   LINE      CODE     ---       #1069
      00FF85E0H   LINE      CODE     ---       #1071
      00FF85E2H   LINE      CODE     ---       #1073
      00FF85F6H   LINE      CODE     ---       #1074
      00FF85FCH   LINE      CODE     ---       #1075
      00FF8603H   LINE      CODE     ---       #1076
      00FF860AH   LINE      CODE     ---       #1077
      ---         BLOCKEND  ---      ---       LVL=0

      00FF5D0FH   BLOCK     CODE     ---       LVL=0
      R1          REGSYM    ---      BYTE      a
      00FF5D11H   BLOCK     CODE     NEAR LAB  LVL=1
      R0          REGSYM    ---      BYTE      i
      R9          REGSYM    ---      BYTE      j
      R8          REGSYM    ---      BYTE      k
      DR4         REGSYM    ---      DWORD     dat
      ---         BLOCKEND  ---      ---       LVL=1
      00FF5D0FH   LINE      CODE     ---       #1081
      00FF5D11H   LINE      CODE     ---       #1082
      00FF5D11H   LINE      CODE     ---       #1085
      00FF5D14H   LINE      CODE     ---       #1086
      00FF5D14H   LINE      CODE     ---       #1088
      00FF5D20H   LINE      CODE     ---       #1091
      00FF5D2BH   LINE      CODE     ---       #1092
      00FF5D2DH   LINE      CODE     ---       #1094
      00FF5D2FH   LINE      CODE     ---       #1096
      00FF5D59H   LINE      CODE     ---       #1097
      00FF5D5FH   LINE      CODE     ---       #1098
      00FF5D66H   LINE      CODE     ---       #1101
      00FF5D6FH   LINE      CODE     ---       #1102
      00FF5D75H   LINE      CODE     ---       #1103
      00FF5D77H   LINE      CODE     ---       #1104
      00FF5D7BH   LINE      CODE     ---       #1106
      00FF5D7EH   LINE      CODE     ---       #1107
      00FF5D80H   LINE      CODE     ---       #1108
      00FF5D84H   LINE      CODE     ---       #1110
      00FF5D87H   LINE      CODE     ---       #1111
      00FF5D87H   LINE      CODE     ---       #1112
      00FF5D8AH   LINE      CODE     ---       #1114
      00FF5D8CH   LINE      CODE     ---       #1116
      00FF5DACH   LINE      CODE     ---       #1117
L251 LINKER/LOCATER V4.66.93.0                                                        04/24/2024  23:59:23  PAGE 80


      00FF5DB2H   LINE      CODE     ---       #1118
      00FF5DB4H   LINE      CODE     ---       #1119
      00FF5DBBH   LINE      CODE     ---       #1121
      00FF5DBDH   LINE      CODE     ---       #1123
      00FF5DC4H   LINE      CODE     ---       #1124
      00FF5DC8H   LINE      CODE     ---       #1125
      00FF5DCEH   LINE      CODE     ---       #1126
      00FF5DD1H   LINE      CODE     ---       #1128
      00FF5DD8H   LINE      CODE     ---       #1129
      00FF5DDCH   LINE      CODE     ---       #1130
      00FF5DE2H   LINE      CODE     ---       #1133
      00FF5DE4H   LINE      CODE     ---       #1135
      00FF5DFDH   LINE      CODE     ---       #1136
      00FF5E03H   LINE      CODE     ---       #1138
      00FF5E05H   LINE      CODE     ---       #1140
      00FF5E1EH   LINE      CODE     ---       #1141
      00FF5E24H   LINE      CODE     ---       #1145
      00FF5E27H   LINE      CODE     ---       #1147
      00FF5E29H   LINE      CODE     ---       #1149
      00FF5E38H   LINE      CODE     ---       #1150
      00FF5E3EH   LINE      CODE     ---       #1151
      00FF5E45H   LINE      CODE     ---       #1154
      ---         BLOCKEND  ---      ---       LVL=0

      00FF8B27H   BLOCK     CODE     ---       LVL=0
      R14         REGSYM    ---      BYTE      k
      R15         REGSYM    ---      BYTE      a
      00FF8B27H   LINE      CODE     ---       #1161
      00FF8B2DH   LINE      CODE     ---       #1163
      00FF8B44H   LINE      CODE     ---       #1164
      00FF8B58H   LINE      CODE     ---       #1165
      ---         BLOCKEND  ---      ---       LVL=0

      00FF7D7EH   BLOCK     CODE     ---       LVL=0
      R6          REGSYM    ---      BYTE      a
      00FF7D82H   BLOCK     CODE     NEAR LAB  LVL=1
      DR12        REGSYM    ---      DWORD     dat
      R11         REGSYM    ---      BYTE      k
      ---         BLOCKEND  ---      ---       LVL=1
      00FF7D7EH   LINE      CODE     ---       #1167
      00FF7D82H   LINE      CODE     ---       #1168
      00FF7D82H   LINE      CODE     ---       #1169
      00FF7D82H   LINE      CODE     ---       #1170
      00FF7D82H   LINE      CODE     ---       #1172
      00FF7D8EH   LINE      CODE     ---       #1174
      00FF7D9CH   LINE      CODE     ---       #1176
      00FF7DA2H   LINE      CODE     ---       #1177
      00FF7DA8H   LINE      CODE     ---       #1178
      00FF7DB8H   LINE      CODE     ---       #1182
      00FF7DC6H   LINE      CODE     ---       #1183
      00FF7DCCH   LINE      CODE     ---       #1184
      00FF7DD2H   LINE      CODE     ---       #1185
      00FF7DE2H   LINE      CODE     ---       #1188
      00FF7DF0H   LINE      CODE     ---       #1189
      00FF7DF6H   LINE      CODE     ---       #1190
      00FF7DFBH   LINE      CODE     ---       #1192
      ---         BLOCKEND  ---      ---       LVL=0

      00FF8946H   BLOCK     CODE     ---       LVL=0
      WR6         REGSYM    ---      WORD      a
      00FF8946H   LINE      CODE     ---       #1197
      00FF8946H   LINE      CODE     ---       #1199
      00FF894CH   LINE      CODE     ---       #1201
      00FF8950H   LINE      CODE     ---       #1202
      00FF8952H   LINE      CODE     ---       #1203
L251 LINKER/LOCATER V4.66.93.0                                                        04/24/2024  23:59:23  PAGE 81


      00FF8958H   LINE      CODE     ---       #1205
      00FF895CH   LINE      CODE     ---       #1206
      00FF895EH   LINE      CODE     ---       #1207
      00FF8964H   LINE      CODE     ---       #1209
      00FF8968H   LINE      CODE     ---       #1210
      00FF896AH   LINE      CODE     ---       #1211
      00FF8970H   LINE      CODE     ---       #1213
      00FF8974H   LINE      CODE     ---       #1214
      00FF8976H   LINE      CODE     ---       #1217
      00FF897AH   LINE      CODE     ---       #1218
      00FF897AH   LINE      CODE     ---       #1219
      00FF897CH   LINE      CODE     ---       #1220
      ---         BLOCKEND  ---      ---       LVL=0

      00FF7FE3H   BLOCK     CODE     ---       LVL=0
      R6          REGSYM    ---      BYTE      a
      R10         REGSYM    ---      BYTE      b
      REG=7       REGSYM    ---      ---       dat
      00FF7FE7H   BLOCK     CODE     NEAR LAB  LVL=1
      R5          REGSYM    ---      BYTE      i
      R7          REGSYM    ---      BYTE      j
      R6          REGSYM    ---      BYTE      c
      ---         BLOCKEND  ---      ---       LVL=1
      00FF7FE3H   LINE      CODE     ---       #1223
      00FF7FE7H   LINE      CODE     ---       #1224
      00FF7FE7H   LINE      CODE     ---       #1227
      00FF7FE7H   LINE      CODE     ---       #1228
      00FF7FEDH   LINE      CODE     ---       #1229
      00FF7FFBH   LINE      CODE     ---       #1231
      00FF7FFDH   LINE      CODE     ---       #1233
      00FF801EH   LINE      CODE     ---       #1235
      00FF8024H   LINE      CODE     ---       #1236
      00FF802AH   LINE      CODE     ---       #1237
      00FF802CH   LINE      CODE     ---       #1239
      00FF804EH   LINE      CODE     ---       #1241
      00FF8055H   LINE      CODE     ---       #1242
      ---         BLOCKEND  ---      ---       LVL=0

      00FF6494H   BLOCK     CODE     ---       LVL=0
      WR4         REGSYM    ---      WORD      a
      00FF6496H   BLOCK     CODE     NEAR LAB  LVL=1
      R15         REGSYM    ---      BYTE      i
      000003AFH   SYMBOL    EDATA    BYTE      k
      WR12        REGSYM    ---      WORD      dat
      000003B0H   SYMBOL    EDATA    BYTE      xsd
      000003B1H   SYMBOL    EDATA    BYTE      fh
      R14         REGSYM    ---      BYTE      adde
      ---         BLOCKEND  ---      ---       LVL=1
      00FF6494H   LINE      CODE     ---       #1245
      00FF6496H   LINE      CODE     ---       #1246
      00FF6496H   LINE      CODE     ---       #1247
      00FF6496H   LINE      CODE     ---       #1249
      00FF6496H   LINE      CODE     ---       #1250
      00FF6496H   LINE      CODE     ---       #1251
      00FF6496H   LINE      CODE     ---       #1252
      00FF6499H   LINE      CODE     ---       #1260
      00FF64AAH   LINE      CODE     ---       #1264
      00FF64C1H   LINE      CODE     ---       #1265
      00FF64CEH   LINE      CODE     ---       #1266
      00FF64D8H   LINE      CODE     ---       #1268
      00FF64DFH   LINE      CODE     ---       #1271
      00FF64E8H   LINE      CODE     ---       #1273
      00FF64ECH   LINE      CODE     ---       #1275
      00FF64FFH   LINE      CODE     ---       #1276
      00FF6501H   LINE      CODE     ---       #1277
L251 LINKER/LOCATER V4.66.93.0                                                        04/24/2024  23:59:23  PAGE 82


      00FF650BH   LINE      CODE     ---       #1278
      00FF650BH   LINE      CODE     ---       #1280
      00FF6514H   LINE      CODE     ---       #1284
      00FF651CH   LINE      CODE     ---       #1286
      00FF6522H   LINE      CODE     ---       #1288
      00FF6526H   LINE      CODE     ---       #1289
      00FF6528H   LINE      CODE     ---       #1292
      00FF6534H   LINE      CODE     ---       #1293
      00FF6534H   LINE      CODE     ---       #1294
      00FF6534H   LINE      CODE     ---       #1297
      00FF6538H   LINE      CODE     ---       #1299
      00FF6542H   LINE      CODE     ---       #1301
      00FF6552H   LINE      CODE     ---       #1302
      00FF6554H   LINE      CODE     ---       #1303
      00FF6556H   LINE      CODE     ---       #1306
      00FF656DH   LINE      CODE     ---       #1307
      00FF6574H   LINE      CODE     ---       #1308
      00FF657EH   LINE      CODE     ---       #1309
      00FF657EH   LINE      CODE     ---       #1310
      00FF6588H   LINE      CODE     ---       #1313
      ---         BLOCKEND  ---      ---       LVL=0

      00FF6E7BH   BLOCK     CODE     ---       LVL=0
      R14         REGSYM    ---      BYTE      t
      R12         REGSYM    ---      BYTE      x
      R13         REGSYM    ---      BYTE      yy
      WR30        REGSYM    ---      WORD      y
      R15         REGSYM    ---      BYTE      limit
      00FF6E87H   BLOCK     CODE     NEAR LAB  LVL=1
      000003ADH   SYMBOL    EDATA    BYTE      i
      000003AEH   SYMBOL    EDATA    ---       SPI_dat
      ---         BLOCKEND  ---      ---       LVL=1
      00FF6E7BH   LINE      CODE     ---       #1319
      00FF6E87H   LINE      CODE     ---       #1320
      00FF6E87H   LINE      CODE     ---       #1329
      00FF6E8DH   LINE      CODE     ---       #1331
      00FF6E95H   LINE      CODE     ---       #1332
      00FF6E97H   LINE      CODE     ---       #1335
      00FF6EA3H   LINE      CODE     ---       #1336
      00FF6EA3H   LINE      CODE     ---       #1337
      00FF6EA8H   LINE      CODE     ---       #1339
      00FF6F21H   LINE      CODE     ---       #1340
      00FF6F36H   LINE      CODE     ---       #1341
      00FF6F3DH   LINE      CODE     ---       #1342
      00FF6F40H   LINE      CODE     ---       #1343
      00FF6F48H   LINE      CODE     ---       #1344
      ---         BLOCKEND  ---      ---       LVL=0

      00FF889CH   BLOCK     CODE     ---       LVL=0
      000003ABH   SYMBOL    EDATA    BYTE      x
      R12         REGSYM    ---      BYTE      yy
      WR14        REGSYM    ---      WORD      y
      R13         REGSYM    ---      BYTE      limit
      00FF88A8H   BLOCK     CODE     NEAR LAB  LVL=1
      000003ACH   SYMBOL    EDATA    BYTE      i
      ---         BLOCKEND  ---      ---       LVL=1
      00FF889CH   LINE      CODE     ---       #1346
      00FF88A8H   LINE      CODE     ---       #1347
      00FF88A8H   LINE      CODE     ---       #1349
      00FF88ADH   LINE      CODE     ---       #1351
      00FF88C0H   LINE      CODE     ---       #1353
      00FF88D2H   LINE      CODE     ---       #1354
      ---         BLOCKEND  ---      ---       LVL=0

      00FF7BF4H   BLOCK     CODE     ---       LVL=0
L251 LINKER/LOCATER V4.66.93.0                                                        04/24/2024  23:59:23  PAGE 83


      R14         REGSYM    ---      BYTE      x
      R15         REGSYM    ---      BYTE      y
      00FF7BFCH   BLOCK     CODE     NEAR LAB  LVL=1
      R6          REGSYM    ---      BYTE      j
      R13         REGSYM    ---      BYTE      k
      ---         BLOCKEND  ---      ---       LVL=1
      00FF7BF4H   LINE      CODE     ---       #1359
      00FF7BFCH   LINE      CODE     ---       #1360
      00FF7BFCH   LINE      CODE     ---       #1363
      00FF7C0AH   LINE      CODE     ---       #1364
      00FF7C0EH   LINE      CODE     ---       #1366
      00FF7C16H   LINE      CODE     ---       #1367
      00FF7C18H   LINE      CODE     ---       #1370
      00FF7C24H   LINE      CODE     ---       #1371
      00FF7C24H   LINE      CODE     ---       #1373
      00FF7C3AH   LINE      CODE     ---       #1374
      00FF7C42H   LINE      CODE     ---       #1376
      00FF7C4BH   LINE      CODE     ---       #1377
      00FF7C4DH   LINE      CODE     ---       #1380
      00FF7C56H   LINE      CODE     ---       #1381
      00FF7C56H   LINE      CODE     ---       #1382
      00FF7C75H   LINE      CODE     ---       #1388
      ---         BLOCKEND  ---      ---       LVL=0

      00FF7329H   BLOCK     CODE     ---       LVL=0
      R14         REGSYM    ---      BYTE      x
      R15         REGSYM    ---      BYTE      y
      00FF732FH   BLOCK     CODE     NEAR LAB  LVL=1
      WR12        REGSYM    ---      WORD      a
      000003ABH   SYMBOL    EDATA    BYTE      i
      ---         BLOCKEND  ---      ---       LVL=1
      00FF7329H   LINE      CODE     ---       #1393
      00FF732FH   LINE      CODE     ---       #1394
      00FF732FH   LINE      CODE     ---       #1395
      00FF732FH   LINE      CODE     ---       #1396
      00FF732FH   LINE      CODE     ---       #1398
      00FF732FH   LINE      CODE     ---       #1399
      00FF733DH   LINE      CODE     ---       #1400
      00FF7344H   LINE      CODE     ---       #1402
      00FF7349H   LINE      CODE     ---       #1404
      00FF734FH   LINE      CODE     ---       #1406
      00FF7351H   LINE      CODE     ---       #1407
      00FF7353H   LINE      CODE     ---       #1408
      00FF735AH   LINE      CODE     ---       #1410
      00FF735CH   LINE      CODE     ---       #1411
      00FF735EH   LINE      CODE     ---       #1412
      00FF7367H   LINE      CODE     ---       #1414
      00FF7375H   LINE      CODE     ---       #1416
      00FF7377H   LINE      CODE     ---       #1417
      00FF7379H   LINE      CODE     ---       #1420
      00FF737BH   LINE      CODE     ---       #1421
      00FF737BH   LINE      CODE     ---       #1422
      00FF737DH   LINE      CODE     ---       #1423
      00FF7386H   LINE      CODE     ---       #1425
      00FF738CH   LINE      CODE     ---       #1427
      00FF738EH   LINE      CODE     ---       #1428
      00FF7390H   LINE      CODE     ---       #1431
      00FF7392H   LINE      CODE     ---       #1432
      00FF7392H   LINE      CODE     ---       #1433
      00FF7394H   LINE      CODE     ---       #1434
      00FF739DH   LINE      CODE     ---       #1436
      00FF739FH   LINE      CODE     ---       #1437
      00FF73A1H   LINE      CODE     ---       #1438
      00FF73AAH   LINE      CODE     ---       #1440
      00FF73AFH   LINE      CODE     ---       #1441
L251 LINKER/LOCATER V4.66.93.0                                                        04/24/2024  23:59:23  PAGE 84


      00FF73BBH   LINE      CODE     ---       #1444
      00FF73C2H   LINE      CODE     ---       #1445
      00FF73CCH   LINE      CODE     ---       #1447
      00FF73D3H   LINE      CODE     ---       #1448
      00FF73D5H   LINE      CODE     ---       #1451
      00FF73DFH   LINE      CODE     ---       #1452
      00FF73DFH   LINE      CODE     ---       #1454
      ---         BLOCKEND  ---      ---       LVL=0

      00FF7019H   BLOCK     CODE     ---       LVL=0
      00FF701BH   BLOCK     CODE     NEAR LAB  LVL=1
      R15         REGSYM    ---      BYTE      i
      ---         BLOCKEND  ---      ---       LVL=1
      00FF7019H   LINE      CODE     ---       #1460
      00FF701BH   LINE      CODE     ---       #1461
      00FF701BH   LINE      CODE     ---       #1462
      00FF701BH   LINE      CODE     ---       #1463
      00FF701EH   LINE      CODE     ---       #1465
      00FF7028H   LINE      CODE     ---       #1466
      00FF702FH   LINE      CODE     ---       #1468
      00FF7032H   LINE      CODE     ---       #1470
      00FF703CH   LINE      CODE     ---       #1471
      00FF7043H   LINE      CODE     ---       #1473
      00FF704BH   LINE      CODE     ---       #1474
      00FF704DH   LINE      CODE     ---       #1476
      00FF7052H   LINE      CODE     ---       #1477
      00FF7059H   LINE      CODE     ---       #1478
      00FF705BH   LINE      CODE     ---       #1480
      00FF7060H   LINE      CODE     ---       #1481
      00FF7067H   LINE      CODE     ---       #1482
      00FF7069H   LINE      CODE     ---       #1484
      00FF706EH   LINE      CODE     ---       #1485
      00FF7075H   LINE      CODE     ---       #1487
      00FF707DH   LINE      CODE     ---       #1488
      00FF707FH   LINE      CODE     ---       #1490
      00FF7084H   LINE      CODE     ---       #1491
      00FF708BH   LINE      CODE     ---       #1492
      00FF7096H   LINE      CODE     ---       #1493
      00FF70A1H   LINE      CODE     ---       #1494
      00FF70ACH   LINE      CODE     ---       #1495
      00FF70B7H   LINE      CODE     ---       #1499
      00FF70C2H   LINE      CODE     ---       #1500
      00FF70CDH   LINE      CODE     ---       #1502
      00FF70D8H   LINE      CODE     ---       #1503
      00FF70E3H   LINE      CODE     ---       #1505
      ---         BLOCKEND  ---      ---       LVL=0

      00FF90CCH   BLOCK     CODE     ---       LVL=0
      R11         REGSYM    ---      BYTE      x
      R10         REGSYM    ---      BYTE      y
      R15         REGSYM    ---      BYTE      t
      00FF90D0H   BLOCK     CODE     NEAR LAB  LVL=1
      R14         REGSYM    ---      BYTE      i
      ---         BLOCKEND  ---      ---       LVL=1
      00FF90CCH   LINE      CODE     ---       #1511
      00FF90D0H   LINE      CODE     ---       #1512
      00FF90D0H   LINE      CODE     ---       #1514
      00FF90D3H   LINE      CODE     ---       #1515
      00FF90D5H   LINE      CODE     ---       #1517
      00FF90DAH   LINE      CODE     ---       #1518
      00FF90E1H   LINE      CODE     ---       #1519
      ---         BLOCKEND  ---      ---       LVL=0

      00FF860DH   BLOCK     CODE     ---       LVL=0
      WR4         REGSYM    ---      WORD      a
L251 LINKER/LOCATER V4.66.93.0                                                        04/24/2024  23:59:23  PAGE 85


      R2          REGSYM    ---      BYTE      x
      R3          REGSYM    ---      BYTE      y
      R10         REGSYM    ---      BYTE      t
      00FF8617H   BLOCK     CODE     NEAR LAB  LVL=1
      R15         REGSYM    ---      BYTE      b
      R10         REGSYM    ---      BYTE      p
      ---         BLOCKEND  ---      ---       LVL=1
      00FF860DH   LINE      CODE     ---       #1523
      00FF8617H   LINE      CODE     ---       #1524
      00FF8617H   LINE      CODE     ---       #1526
      00FF8621H   LINE      CODE     ---       #1527
      00FF8627H   LINE      CODE     ---       #1529
      00FF862AH   LINE      CODE     ---       #1530
      00FF862CH   LINE      CODE     ---       #1531
      00FF8636H   LINE      CODE     ---       #1533
      00FF8636H   LINE      CODE     ---       #1534
      00FF8644H   LINE      CODE     ---       #1535
      00FF8646H   LINE      CODE     ---       #1538
      00FF8648H   LINE      CODE     ---       #1539
      00FF8648H   LINE      CODE     ---       #1540
      00FF8651H   LINE      CODE     ---       #1543
      ---         BLOCKEND  ---      ---       LVL=0

      00FF45C6H   BLOCK     CODE     ---       LVL=0
      00FF45C8H   BLOCK     CODE     NEAR LAB  LVL=1
      WR14        REGSYM    ---      WORD      a
      R15         REGSYM    ---      BYTE      i
      ---         BLOCKEND  ---      ---       LVL=1
      00FF45C6H   LINE      CODE     ---       #1546
      00FF45C8H   LINE      CODE     ---       #1547
      00FF45C8H   LINE      CODE     ---       #1548
      00FF45C8H   LINE      CODE     ---       #1549
      00FF45C8H   LINE      CODE     ---       #1551
      00FF45DDH   LINE      CODE     ---       #1555
      00FF45E7H   LINE      CODE     ---       #1557
      00FF45F4H   LINE      CODE     ---       #1558
      00FF4601H   LINE      CODE     ---       #1559
      00FF460EH   LINE      CODE     ---       #1560
      00FF461AH   LINE      CODE     ---       #1562
      00FF461CH   LINE      CODE     ---       #1565
      00FF4626H   LINE      CODE     ---       #1566
      00FF462EH   LINE      CODE     ---       #1567
      00FF4636H   LINE      CODE     ---       #1568
      00FF463EH   LINE      CODE     ---       #1569
      00FF4649H   LINE      CODE     ---       #1570
      00FF4654H   LINE      CODE     ---       #1571
      00FF465FH   LINE      CODE     ---       #1572
      00FF465FH   LINE      CODE     ---       #1574
      00FF4669H   LINE      CODE     ---       #1577
      00FF4677H   LINE      CODE     ---       #1579
      00FF4682H   LINE      CODE     ---       #1580
      00FF468DH   LINE      CODE     ---       #1581
      00FF468DH   LINE      CODE     ---       #1582
      00FF46A8H   LINE      CODE     ---       #1583
      00FF46C3H   LINE      CODE     ---       #1584
      00FF46DEH   LINE      CODE     ---       #1585
      00FF46E0H   LINE      CODE     ---       #1588
      00FF46EAH   LINE      CODE     ---       #1590
      00FF46F2H   LINE      CODE     ---       #1591
      00FF46F4H   LINE      CODE     ---       #1593
      00FF46F8H   LINE      CODE     ---       #1594
      00FF46FFH   LINE      CODE     ---       #1595
      00FF4707H   LINE      CODE     ---       #1596
      00FF4709H   LINE      CODE     ---       #1598
      00FF470DH   LINE      CODE     ---       #1599
L251 LINKER/LOCATER V4.66.93.0                                                        04/24/2024  23:59:23  PAGE 86


      00FF4714H   LINE      CODE     ---       #1600
      00FF4714H   LINE      CODE     ---       #1604
      00FF4720H   LINE      CODE     ---       #1606
      00FF4735H   LINE      CODE     ---       #1607
      00FF4737H   LINE      CODE     ---       #1610
      00FF4742H   LINE      CODE     ---       #1611
      00FF4742H   LINE      CODE     ---       #1613
      00FF474EH   LINE      CODE     ---       #1615
      00FF4763H   LINE      CODE     ---       #1616
      00FF4765H   LINE      CODE     ---       #1619
      00FF4770H   LINE      CODE     ---       #1620
      00FF4770H   LINE      CODE     ---       #1621
      00FF4786H   LINE      CODE     ---       #1624
      00FF479BH   LINE      CODE     ---       #1625
      00FF47B9H   LINE      CODE     ---       #1626
      00FF47D7H   LINE      CODE     ---       #1628
      00FF47DFH   LINE      CODE     ---       #1629
      ---         BLOCKEND  ---      ---       LVL=0

      ---         MODULE    ---      ---       SecondaryMenu
      00FF7CFDH   PUBLIC    CODE     ---       UIData_fill
      00FF8EBEH   PUBLIC    CODE     ---       UI_S_F2
      00FF3BD8H   PUBLIC    CODE     ---       IU_Secondary
      00FF55F8H   PUBLIC    CODE     ---       UI_SecondaryMenu
      00FF590CH   PUBLIC    CODE     ---       UI_SeMenu_Cursor_num
      00FF8C8AH   PUBLIC    CODE     ---       UI_SecondaryMenu_G
      00FF8DE6H   PUBLIC    CODE     ---       UI_SeMenu_Cursor_num_2
      00FF8F5AH   PUBLIC    CODE     ---       UI_S_F
      0000001FH   PUBLIC    EDATA    BYTE      p
      000000D0H   SFRSYM    DATA     BYTE      PSW
      0000009DH   SFRSYM    DATA     BYTE      IRCBAND
      00000097H   SFRSYM    DATA     BYTE      AUXR2
      000000EFH   SFRSYM    DATA     BYTE      AUXINTIF
      000000FDH   SFRSYM    DATA     BYTE      S4CON
      000000ACH   SFRSYM    DATA     BYTE      S3CON
      0000009AH   SFRSYM    DATA     BYTE      S2CON
      000000B7H   SFRSYM    DATA     BYTE      IPH
      000000CDH   SFRSYM    DATA     BYTE      SPSTAT
      000000DDH   SFRSYM    DATA     BYTE      T4T3M
      000000C1H   SFRSYM    DATA     BYTE      WDT_CONTR
      000000DFH   SFRSYM    DATA     BYTE      IP3
      000000F4H   SFRSYM    DATA     BYTE      USBCON
      000000B5H   SFRSYM    DATA     BYTE      IP2
      000000FFH   SFRSYM    DATA     BYTE      RSTCFG
      000000C7H   SFRSYM    DATA     BYTE      IAP_CONTR
      000000F9H   SFRSYM    DATA     BYTE      LINICR
      0000008EH   SFRSYM    DATA     BYTE      AUXR
      000000AFH   SFRSYM    DATA     BYTE      IE2
      000000A0H.7 SFRSYM    DATA     BIT       P27
      000000C0H.5 SFRSYM    DATA     BIT       P45
      00000088H   SFRSYM    DATA     BYTE      TCON
      00000089H   SFRSYM    DATA     BYTE      TMOD
      00000098H   SFRSYM    DATA     BYTE      SCON
      000000F1H   SFRSYM    DATA     BYTE      CANICR
      00000087H   SFRSYM    DATA     BYTE      PCON
      000000BCH   SFRSYM    DATA     BYTE      ADC_CONTR
      000000E7H   SFRSYM    DATA     BYTE      CMPCR2
      000000E6H   SFRSYM    DATA     BYTE      CMPCR1
      000000DEH   SFRSYM    DATA     BYTE      ADCCFG
      000000B8H   SFRSYM    DATA     BYTE      IP
      0000008FH   SFRSYM    DATA     BYTE      INTCLKO
      000000EEH   SFRSYM    DATA     BYTE      IP3H
      000000B6H   SFRSYM    DATA     BYTE      IP2H
      000000A8H   SFRSYM    DATA     BYTE      IE
      000000BBH   SFRSYM    DATA     BYTE      P_SW3
L251 LINKER/LOCATER V4.66.93.0                                                        04/24/2024  23:59:23  PAGE 87


      000000BAH   SFRSYM    DATA     BYTE      P_SW2
      000000A2H   SFRSYM    DATA     BYTE      P_SW1
      000000CEH   SFRSYM    DATA     BYTE      SPCTL
      000000F8H   SFRSYM    DATA     BYTE      P7
      000000E8H   SFRSYM    DATA     BYTE      P6
      000000C8H   SFRSYM    DATA     BYTE      P5
      000000C0H   SFRSYM    DATA     BYTE      P4
      000000B0H   SFRSYM    DATA     BYTE      P3
      000000A0H   SFRSYM    DATA     BYTE      P2
      00000090H   SFRSYM    DATA     BYTE      P1
      00000080H   SFRSYM    DATA     BYTE      P0

      00FF8F5AH   BLOCK     CODE     ---       LVL=0
      R15         REGSYM    ---      CHAR      a
      00FF8F5EH   BLOCK     CODE     NEAR LAB  LVL=1
      WR6         REGSYM    ---      WORD      dat
      ---         BLOCKEND  ---      ---       LVL=1
      00FF8F5AH   LINE      CODE     ---       #20
      00FF8F5EH   LINE      CODE     ---       #21
      00FF8F5EH   LINE      CODE     ---       #22
      00FF8F5EH   LINE      CODE     ---       #23
      00FF8F75H   LINE      CODE     ---       #24
      00FF8F75H   LINE      CODE     ---       #25
      ---         BLOCKEND  ---      ---       LVL=0

      00FF8EBEH   BLOCK     CODE     ---       LVL=0
      R15         REGSYM    ---      CHAR      a
      00FF8EC2H   BLOCK     CODE     NEAR LAB  LVL=1
      WR14        REGSYM    ---      WORD      dat
      ---         BLOCKEND  ---      ---       LVL=1
      00FF8EBEH   LINE      CODE     ---       #29
      00FF8EC2H   LINE      CODE     ---       #30
      00FF8EC2H   LINE      CODE     ---       #31
      00FF8EC2H   LINE      CODE     ---       #32
      00FF8ED3H   LINE      CODE     ---       #33
      00FF8EDAH   LINE      CODE     ---       #34
      00FF8EDCH   LINE      CODE     ---       #35
      ---         BLOCKEND  ---      ---       LVL=0

      00FF7CFDH   BLOCK     CODE     ---       LVL=0
      WR4         REGSYM    ---      WORD      a
      R3          REGSYM    ---      BYTE      b
      00FF7CFDH   LINE      CODE     ---       #38
      00FF7D03H   LINE      CODE     ---       #40
      00FF7D1BH   LINE      CODE     ---       #42
      00FF7D1FH   LINE      CODE     ---       #44
      00FF7D24H   LINE      CODE     ---       #45
      00FF7D26H   LINE      CODE     ---       #48
      00FF7D2BH   LINE      CODE     ---       #49
      00FF7D2BH   LINE      CODE     ---       #50
      00FF7D2DH   LINE      CODE     ---       #51
      00FF7D44H   LINE      CODE     ---       #53
      00FF7D4BH   LINE      CODE     ---       #54
      00FF7D4DH   LINE      CODE     ---       #55
      00FF7D60H   LINE      CODE     ---       #57
      00FF7D74H   LINE      CODE     ---       #58
      00FF7D76H   LINE      CODE     ---       #61
      00FF7D7BH   LINE      CODE     ---       #62
      00FF7D7BH   LINE      CODE     ---       #66
      ---         BLOCKEND  ---      ---       LVL=0

      00FF590CH   BLOCK     CODE     ---       LVL=0
      R14         REGSYM    ---      CHAR      num
      R15         REGSYM    ---      BYTE      x
      000003ABH   SYMBOL    EDATA    BYTE      yy1
L251 LINKER/LOCATER V4.66.93.0                                                        04/24/2024  23:59:23  PAGE 88


      R12         REGSYM    ---      BYTE      yy2
      R13         REGSYM    ---      BYTE      a
      00FF591AH   BLOCK     CODE     NEAR LAB  LVL=1
      000003ACH   SYMBOL    EDATA    BYTE      address
      000003ADH   SYMBOL    EDATA    WORD      address2
      WR6         REGSYM    ---      WORD      address3
      ---         BLOCKEND  ---      ---       LVL=1
      00FF590CH   LINE      CODE     ---       #70
      00FF591AH   LINE      CODE     ---       #71
      00FF591AH   LINE      CODE     ---       #72
      00FF591FH   LINE      CODE     ---       #73
      00FF5925H   LINE      CODE     ---       #74
      00FF5925H   LINE      CODE     ---       #75
      00FF592AH   LINE      CODE     ---       #76
      00FF592EH   LINE      CODE     ---       #78
      00FF5946H   LINE      CODE     ---       #80
      00FF594DH   LINE      CODE     ---       #81
      00FF594DH   LINE      CODE     ---       #82
      00FF594DH   LINE      CODE     ---       #83
      00FF5950H   LINE      CODE     ---       #86
      00FF595AH   LINE      CODE     ---       #87
      00FF595AH   LINE      CODE     ---       #88
      00FF595AH   LINE      CODE     ---       #89
      00FF595DH   LINE      CODE     ---       #92
      00FF59EFH   LINE      CODE     ---       #94
      00FF59F8H   LINE      CODE     ---       #95
      00FF59FEH   LINE      CODE     ---       #96
      00FF5A04H   LINE      CODE     ---       #97
      00FF5A06H   LINE      CODE     ---       #98
      00FF5A12H   LINE      CODE     ---       #100
      00FF5A18H   LINE      CODE     ---       #101
      00FF5A18H   LINE      CODE     ---       #102
      00FF5A1AH   LINE      CODE     ---       #103
      00FF5A32H   LINE      CODE     ---       #105
      00FF5A3DH   LINE      CODE     ---       #106
      00FF5A43H   LINE      CODE     ---       #107
      00FF5A49H   LINE      CODE     ---       #108
      00FF5A49H   LINE      CODE     ---       #110
      00FF5A6CH   LINE      CODE     ---       #112
      ---         BLOCKEND  ---      ---       LVL=0

      00FF8DE6H   BLOCK     CODE     ---       LVL=0
      R12         REGSYM    ---      CHAR      num
      R13         REGSYM    ---      BYTE      yy1
      R14         REGSYM    ---      BYTE      yy2
      R15         REGSYM    ---      BYTE      a
      00FF8DE6H   LINE      CODE     ---       #114
      00FF8DF0H   LINE      CODE     ---       #116
      00FF8DFBH   LINE      CODE     ---       #117
      00FF8E09H   LINE      CODE     ---       #118
      ---         BLOCKEND  ---      ---       LVL=0

      00FF8C8AH   BLOCK     CODE     ---       LVL=0
      00FF8C8AH   LINE      CODE     ---       #137
      00FF8C8AH   LINE      CODE     ---       #138
      00FF8C8AH   LINE      CODE     ---       #139
      00FF8C8AH   LINE      CODE     ---       #140
      00FF8C98H   LINE      CODE     ---       #141
      00FF8C98H   LINE      CODE     ---       #142
      00FF8CA8H   LINE      CODE     ---       #143
      00FF8CA8H   LINE      CODE     ---       #144
      ---         BLOCKEND  ---      ---       LVL=0

      00FF55F8H   BLOCK     CODE     ---       LVL=0
      R10         REGSYM    ---      BYTE      a
L251 LINKER/LOCATER V4.66.93.0                                                        04/24/2024  23:59:23  PAGE 89


      00FF55FCH   BLOCK     CODE     NEAR LAB  LVL=1
      R15         REGSYM    ---      BYTE      dat1
      R15         REGSYM    ---      BYTE      yy
      ---         BLOCKEND  ---      ---       LVL=1
      00FF55F8H   LINE      CODE     ---       #153
      00FF55FCH   LINE      CODE     ---       #154
      00FF55FCH   LINE      CODE     ---       #155
      00FF55FCH   LINE      CODE     ---       #156
      00FF55FCH   LINE      CODE     ---       #157
      00FF55FCH   LINE      CODE     ---       #160
      00FF5603H   LINE      CODE     ---       #162
      00FF562DH   LINE      CODE     ---       #164
      00FF5635H   LINE      CODE     ---       #165
      00FF563BH   LINE      CODE     ---       #167
      00FF5646H   LINE      CODE     ---       #169
      00FF5646H   LINE      CODE     ---       #171
      00FF564EH   LINE      CODE     ---       #172
      00FF565BH   LINE      CODE     ---       #174
      00FF5666H   LINE      CODE     ---       #176
      00FF5670H   LINE      CODE     ---       #177
      00FF567DH   LINE      CODE     ---       #179
      00FF5689H   LINE      CODE     ---       #181
      00FF5693H   LINE      CODE     ---       #183
      00FF569DH   LINE      CODE     ---       #185
      00FF569FH   LINE      CODE     ---       #186
      00FF56A1H   LINE      CODE     ---       #190
      00FF56ADH   LINE      CODE     ---       #192
      00FF56AFH   LINE      CODE     ---       #193
      00FF56BAH   LINE      CODE     ---       #194
      00FF56BAH   LINE      CODE     ---       #196
      00FF56C8H   LINE      CODE     ---       #197
      00FF56D4H   LINE      CODE     ---       #200
      00FF56E2H   LINE      CODE     ---       #201
      00FF56EDH   LINE      CODE     ---       #203
      00FF56FBH   LINE      CODE     ---       #204
      00FF5707H   LINE      CODE     ---       #206
      00FF5707H   LINE      CODE     ---       #207
      00FF5725H   LINE      CODE     ---       #210
      00FF5755H   LINE      CODE     ---       #212
      00FF5768H   LINE      CODE     ---       #213
      00FF5780H   LINE      CODE     ---       #214
      00FF5780H   LINE      CODE     ---       #217
      ---         BLOCKEND  ---      ---       LVL=0

      00FF3BD8H   BLOCK     CODE     ---       LVL=0
      00FF3BD8H   LINE      CODE     ---       #221
      00FF3BDAH   LINE      CODE     ---       #223
      00FF3BFFH   LINE      CODE     ---       #225
      00FF3C1DH   LINE      CODE     ---       #227
      00FF3C23H   LINE      CODE     ---       #228
      00FF3C2CH   LINE      CODE     ---       #229
      00FF3C2CH   LINE      CODE     ---       #230
      00FF3C3DH   LINE      CODE     ---       #232
      00FF3C47H   LINE      CODE     ---       #234
      00FF3C4DH   LINE      CODE     ---       #236
      00FF3C57H   LINE      CODE     ---       #237
      00FF3C64H   LINE      CODE     ---       #238
      00FF3C70H   LINE      CODE     ---       #239
      00FF3C70H   LINE      CODE     ---       #241
      00FF3C8CH   LINE      CODE     ---       #244
      00FF3C9CH   LINE      CODE     ---       #246
      00FF3CA1H   LINE      CODE     ---       #247
      00FF3CAAH   LINE      CODE     ---       #248
      00FF3CACH   LINE      CODE     ---       #249
      00FF3CB0H   LINE      CODE     ---       #251
L251 LINKER/LOCATER V4.66.93.0                                                        04/24/2024  23:59:23  PAGE 90


      00FF3CB4H   LINE      CODE     ---       #252
      00FF3CC0H   LINE      CODE     ---       #254
      00FF3CC0H   LINE      CODE     ---       #255
      00FF3CCBH   LINE      CODE     ---       #256
      00FF3CD8H   LINE      CODE     ---       #258
      00FF3CE4H   LINE      CODE     ---       #259
      00FF3CF0H   LINE      CODE     ---       #260
      00FF3CFBH   LINE      CODE     ---       #262
      00FF3D18H   LINE      CODE     ---       #263
      00FF3D2BH   LINE      CODE     ---       #265
      00FF3D33H   LINE      CODE     ---       #267
      00FF3D79H   LINE      CODE     ---       #269
      00FF3DB1H   LINE      CODE     ---       #270
      00FF3DE3H   LINE      CODE     ---       #271
      00FF3DE6H   LINE      CODE     ---       #273
      00FF3DF3H   LINE      CODE     ---       #275
      00FF3DFEH   LINE      CODE     ---       #276
      00FF3E39H   LINE      CODE     ---       #278
      00FF3E71H   LINE      CODE     ---       #279
      00FF3EA9H   LINE      CODE     ---       #280
      00FF3EA9H   LINE      CODE     ---       #282
      00FF3EB9H   LINE      CODE     ---       #284
      00FF3EBCH   LINE      CODE     ---       #286
      00FF3EC7H   LINE      CODE     ---       #287
      00FF3EC7H   LINE      CODE     ---       #288
      00FF3ECAH   LINE      CODE     ---       #290
      00FF3ED3H   LINE      CODE     ---       #291
      00FF3ED3H   LINE      CODE     ---       #293
      00FF3ED3H   LINE      CODE     ---       #295
      00FF3ED3H   LINE      CODE     ---       #299
      00FF3ED3H   LINE      CODE     ---       #302
      00FF3ED3H   LINE      CODE     ---       #304
      ---         BLOCKEND  ---      ---       LVL=0

      ---         MODULE    ---      ---       SHT41
      00FF8B5BH   PUBLIC    CODE     ---       SHT41_R_16bit
      00FF92C0H   PUBLIC    CODE     ---       SHT41_Init
      00FF91A8H   PUBLIC    CODE     ---       SHT41_R_High
      00FF7C7AH   PUBLIC    CODE     ---       SHT41_falg_0004
      000003BFH   PUBLIC    EDATA    BYTE      uuy
      000000D0H   SFRSYM    DATA     BYTE      PSW
      0000009DH   SFRSYM    DATA     BYTE      IRCBAND
      00000097H   SFRSYM    DATA     BYTE      AUXR2
      000000EFH   SFRSYM    DATA     BYTE      AUXINTIF
      000000FDH   SFRSYM    DATA     BYTE      S4CON
      000000ACH   SFRSYM    DATA     BYTE      S3CON
      0000009AH   SFRSYM    DATA     BYTE      S2CON
      000000B7H   SFRSYM    DATA     BYTE      IPH
      000000CDH   SFRSYM    DATA     BYTE      SPSTAT
      000000DDH   SFRSYM    DATA     BYTE      T4T3M
      000000C1H   SFRSYM    DATA     BYTE      WDT_CONTR
      000000DFH   SFRSYM    DATA     BYTE      IP3
      000000F4H   SFRSYM    DATA     BYTE      USBCON
      000000B5H   SFRSYM    DATA     BYTE      IP2
      000000FFH   SFRSYM    DATA     BYTE      RSTCFG
      000000C7H   SFRSYM    DATA     BYTE      IAP_CONTR
      000000F9H   SFRSYM    DATA     BYTE      LINICR
      0000008EH   SFRSYM    DATA     BYTE      AUXR
      000000AFH   SFRSYM    DATA     BYTE      IE2
      00000088H   SFRSYM    DATA     BYTE      TCON
      00000089H   SFRSYM    DATA     BYTE      TMOD
      00000098H   SFRSYM    DATA     BYTE      SCON
      000000F1H   SFRSYM    DATA     BYTE      CANICR
      00000087H   SFRSYM    DATA     BYTE      PCON
      000000BCH   SFRSYM    DATA     BYTE      ADC_CONTR
L251 LINKER/LOCATER V4.66.93.0                                                        04/24/2024  23:59:23  PAGE 91


      000000E7H   SFRSYM    DATA     BYTE      CMPCR2
      000000E6H   SFRSYM    DATA     BYTE      CMPCR1
      000000DEH   SFRSYM    DATA     BYTE      ADCCFG
      000000B8H   SFRSYM    DATA     BYTE      IP
      0000008FH   SFRSYM    DATA     BYTE      INTCLKO
      000000EEH   SFRSYM    DATA     BYTE      IP3H
      000000B6H   SFRSYM    DATA     BYTE      IP2H
      000000A8H   SFRSYM    DATA     BYTE      IE
      000000BBH   SFRSYM    DATA     BYTE      P_SW3
      000000BAH   SFRSYM    DATA     BYTE      P_SW2
      000000A2H   SFRSYM    DATA     BYTE      P_SW1
      000000CEH   SFRSYM    DATA     BYTE      SPCTL
      000000F8H   SFRSYM    DATA     BYTE      P7
      000000E8H   SFRSYM    DATA     BYTE      P6
      000000C8H   SFRSYM    DATA     BYTE      P5
      000000C0H   SFRSYM    DATA     BYTE      P4
      000000B0H   SFRSYM    DATA     BYTE      P3
      000000A0H   SFRSYM    DATA     BYTE      P2
      00000090H   SFRSYM    DATA     BYTE      P1
      00000080H   SFRSYM    DATA     BYTE      P0

      00FF92C0H   BLOCK     CODE     ---       LVL=0
      00FF92C0H   LINE      CODE     ---       #15
      00FF92C0H   LINE      CODE     ---       #17
      ---         BLOCKEND  ---      ---       LVL=0

      00FF8B5BH   BLOCK     CODE     ---       LVL=0
      R15         REGSYM    ---      BYTE      k
      00FF8B61H   BLOCK     CODE     NEAR LAB  LVL=1
      WR12        REGSYM    ---      WORD      dat
      ---         BLOCKEND  ---      ---       LVL=1
      00FF8B5BH   LINE      CODE     ---       #20
      00FF8B61H   LINE      CODE     ---       #21
      00FF8B61H   LINE      CODE     ---       #22
      00FF8B61H   LINE      CODE     ---       #23
      00FF8B66H   LINE      CODE     ---       #24
      00FF8B69H   LINE      CODE     ---       #25
      00FF8B6DH   LINE      CODE     ---       #26
      00FF8B74H   LINE      CODE     ---       #27
      00FF8B77H   LINE      CODE     ---       #28
      00FF8B7AH   LINE      CODE     ---       #29
      00FF8B81H   LINE      CODE     ---       #30
      00FF8B88H   LINE      CODE     ---       #31
      00FF8B8AH   LINE      CODE     ---       #32
      ---         BLOCKEND  ---      ---       LVL=0

      00FF91A8H   BLOCK     CODE     ---       LVL=0
      00FF91A8H   LINE      CODE     ---       #34
      00FF91A8H   LINE      CODE     ---       #37
      00FF91B0H   LINE      CODE     ---       #38
      ---         BLOCKEND  ---      ---       LVL=0

      00FF7C7AH   BLOCK     CODE     ---       LVL=0
      00FF7C7CH   BLOCK     CODE     NEAR LAB  LVL=1
      000003ABH   SYMBOL    EDATA    DWORD     a
      DR12        REGSYM    ---      DWORD     b
      ---         BLOCKEND  ---      ---       LVL=1
      00FF7C7AH   LINE      CODE     ---       #82
      00FF7C7CH   LINE      CODE     ---       #83
      00FF7C7CH   LINE      CODE     ---       #84
      00FF7C7CH   LINE      CODE     ---       #85
      00FF7C7CH   LINE      CODE     ---       #86
      00FF7C86H   LINE      CODE     ---       #88
      00FF7C89H   LINE      CODE     ---       #89
      00FF7C8EH   LINE      CODE     ---       #90
L251 LINKER/LOCATER V4.66.93.0                                                        04/24/2024  23:59:23  PAGE 92


      00FF7C91H   LINE      CODE     ---       #91
      00FF7C9BH   LINE      CODE     ---       #92
      00FF7CA4H   LINE      CODE     ---       #93
      00FF7CA7H   LINE      CODE     ---       #94
      00FF7CC3H   LINE      CODE     ---       #95
      00FF7CD7H   LINE      CODE     ---       #96
      00FF7CE5H   LINE      CODE     ---       #97
      00FF7CEFH   LINE      CODE     ---       #98
      00FF7CFAH   LINE      CODE     ---       #99
      ---         BLOCKEND  ---      ---       LVL=0

      ---         MODULE    ---      ---       SPL06
      00FF9113H   PUBLIC    CODE     ---       SPL06_PR_R
      00FF7878H   PUBLIC    CODE     ---       SPL06_R2
      00FF8B8FH   PUBLIC    CODE     ---       SPL06_PR_P_flag0010
      00FF890EH   PUBLIC    CODE     ---       SPL06_Init
      00FF8A8AH   PUBLIC    CODE     ---       SPL06_PR_R_flag0008
      00FF667FH   PUBLIC    CODE     ---       SPL06_Math_P
      000000D0H   SFRSYM    DATA     BYTE      PSW
      0000009DH   SFRSYM    DATA     BYTE      IRCBAND
      00000097H   SFRSYM    DATA     BYTE      AUXR2
      000000EFH   SFRSYM    DATA     BYTE      AUXINTIF
      000000FDH   SFRSYM    DATA     BYTE      S4CON
      000000ACH   SFRSYM    DATA     BYTE      S3CON
      0000009AH   SFRSYM    DATA     BYTE      S2CON
      000000B7H   SFRSYM    DATA     BYTE      IPH
      000000CDH   SFRSYM    DATA     BYTE      SPSTAT
      000000DDH   SFRSYM    DATA     BYTE      T4T3M
      000000C1H   SFRSYM    DATA     BYTE      WDT_CONTR
      000000DFH   SFRSYM    DATA     BYTE      IP3
      000000F4H   SFRSYM    DATA     BYTE      USBCON
      000000B5H   SFRSYM    DATA     BYTE      IP2
      000000FFH   SFRSYM    DATA     BYTE      RSTCFG
      000000C7H   SFRSYM    DATA     BYTE      IAP_CONTR
      000000F9H   SFRSYM    DATA     BYTE      LINICR
      0000008EH   SFRSYM    DATA     BYTE      AUXR
      000000AFH   SFRSYM    DATA     BYTE      IE2
      00000088H   SFRSYM    DATA     BYTE      TCON
      00000089H   SFRSYM    DATA     BYTE      TMOD
      00000098H   SFRSYM    DATA     BYTE      SCON
      000000F1H   SFRSYM    DATA     BYTE      CANICR
      00000087H   SFRSYM    DATA     BYTE      PCON
      000000BCH   SFRSYM    DATA     BYTE      ADC_CONTR
      000000E7H   SFRSYM    DATA     BYTE      CMPCR2
      000000E6H   SFRSYM    DATA     BYTE      CMPCR1
      000000DEH   SFRSYM    DATA     BYTE      ADCCFG
      000000B8H   SFRSYM    DATA     BYTE      IP
      0000008FH   SFRSYM    DATA     BYTE      INTCLKO
      000000EEH   SFRSYM    DATA     BYTE      IP3H
      000000B6H   SFRSYM    DATA     BYTE      IP2H
      000000A8H   SFRSYM    DATA     BYTE      IE
      000000BBH   SFRSYM    DATA     BYTE      P_SW3
      000000BAH   SFRSYM    DATA     BYTE      P_SW2
      000000A2H   SFRSYM    DATA     BYTE      P_SW1
      000000CEH   SFRSYM    DATA     BYTE      SPCTL
      000000F8H   SFRSYM    DATA     BYTE      P7
      000000E8H   SFRSYM    DATA     BYTE      P6
      000000C8H   SFRSYM    DATA     BYTE      P5
      000000C0H   SFRSYM    DATA     BYTE      P4
      000000B0H   SFRSYM    DATA     BYTE      P3
      000000A0H   SFRSYM    DATA     BYTE      P2
      00000090H   SFRSYM    DATA     BYTE      P1
      00000080H   SFRSYM    DATA     BYTE      P0

      00FF890EH   BLOCK     CODE     ---       LVL=0
L251 LINKER/LOCATER V4.66.93.0                                                        04/24/2024  23:59:23  PAGE 93


      00FF890EH   LINE      CODE     ---       #13
      00FF890EH   LINE      CODE     ---       #15
      00FF8919H   LINE      CODE     ---       #16
      00FF891EH   LINE      CODE     ---       #17
      00FF8928H   LINE      CODE     ---       #18
      00FF8932H   LINE      CODE     ---       #19
      00FF893CH   LINE      CODE     ---       #20
      ---         BLOCKEND  ---      ---       LVL=0
      R15         REGSYM    ---      BYTE      i
      R15         REGSYM    ---      BYTE      cmd
      R14         REGSYM    ---      BYTE      dat

      00FF667FH   BLOCK     CODE     ---       LVL=0
      DR20        REGSYM    ---      DWORD     dat3
      DR0         REGSYM    ---      DWORD     dat2
      00FF6681H   BLOCK     CODE     NEAR LAB  LVL=1
      DR4         REGSYM    ---      DWORD     dat4
      ---         BLOCKEND  ---      ---       LVL=1
      00FF667FH   LINE      CODE     ---       #80
      00FF6681H   LINE      CODE     ---       #81
      00FF6681H   LINE      CODE     ---       #105
      00FF6697H   LINE      CODE     ---       #106
      00FF66B3H   LINE      CODE     ---       #107
      00FF6766H   LINE      CODE     ---       #108
      00FF6770H   LINE      CODE     ---       #116
      ---         BLOCKEND  ---      ---       LVL=0

      00FF7878H   BLOCK     CODE     ---       LVL=0
      R14         REGSYM    ---      BYTE      cmd
      R15         REGSYM    ---      BYTE      dat
      00FF787EH   BLOCK     CODE     NEAR LAB  LVL=1
      000003ABH   SYMBOL    EDATA    DWORD     dat1
      ---         BLOCKEND  ---      ---       LVL=1
      00FF7878H   LINE      CODE     ---       #131
      00FF787EH   LINE      CODE     ---       #132
      00FF787EH   LINE      CODE     ---       #133
      00FF787EH   LINE      CODE     ---       #134
      00FF7881H   LINE      CODE     ---       #135
      00FF7886H   LINE      CODE     ---       #136
      00FF7889H   LINE      CODE     ---       #137
      00FF788EH   LINE      CODE     ---       #138
      00FF7891H   LINE      CODE     ---       #139
      00FF7894H   LINE      CODE     ---       #140
      00FF7899H   LINE      CODE     ---       #141
      00FF789CH   LINE      CODE     ---       #143
      00FF78A7H   LINE      CODE     ---       #144
      00FF78AAH   LINE      CODE     ---       #145
      00FF78BAH   LINE      CODE     ---       #146
      00FF78CBH   LINE      CODE     ---       #147
      00FF78CEH   LINE      CODE     ---       #148
      00FF78DEH   LINE      CODE     ---       #149
      00FF78EFH   LINE      CODE     ---       #150
      00FF78F2H   LINE      CODE     ---       #151
      00FF78F5H   LINE      CODE     ---       #152
      00FF790FH   LINE      CODE     ---       #153
      ---         BLOCKEND  ---      ---       LVL=0

      00FF9113H   BLOCK     CODE     ---       LVL=0
      00FF9113H   LINE      CODE     ---       #161
      00FF9113H   LINE      CODE     ---       #163
      00FF911EH   LINE      CODE     ---       #164
      ---         BLOCKEND  ---      ---       LVL=0

      00FF8A8AH   BLOCK     CODE     ---       LVL=0
      00FF8A8AH   LINE      CODE     ---       #168
L251 LINKER/LOCATER V4.66.93.0                                                        04/24/2024  23:59:23  PAGE 94


      00FF8A8AH   LINE      CODE     ---       #171
      00FF8A94H   LINE      CODE     ---       #173
      00FF8A9CH   LINE      CODE     ---       #174
      00FF8AA7H   LINE      CODE     ---       #175
      00FF8AB2H   LINE      CODE     ---       #176
      00FF8ABEH   LINE      CODE     ---       #177
      ---         BLOCKEND  ---      ---       LVL=0

      00FF8B8FH   BLOCK     CODE     ---       LVL=0
      00FF8B8FH   LINE      CODE     ---       #180
      00FF8B8FH   LINE      CODE     ---       #182
      00FF8B99H   LINE      CODE     ---       #184
      00FF8BA0H   LINE      CODE     ---       #185
      00FF8BB7H   LINE      CODE     ---       #186
      00FF8BC2H   LINE      CODE     ---       #187
      ---         BLOCKEND  ---      ---       LVL=0

      ---         MODULE    ---      ---       SW
      000000D0H   SFRSYM    DATA     BYTE      PSW
      0000009DH   SFRSYM    DATA     BYTE      IRCBAND
      00000097H   SFRSYM    DATA     BYTE      AUXR2
      000000EFH   SFRSYM    DATA     BYTE      AUXINTIF
      000000FDH   SFRSYM    DATA     BYTE      S4CON
      000000ACH   SFRSYM    DATA     BYTE      S3CON
      0000009AH   SFRSYM    DATA     BYTE      S2CON
      000000B7H   SFRSYM    DATA     BYTE      IPH
      000000CDH   SFRSYM    DATA     BYTE      SPSTAT
      000000DDH   SFRSYM    DATA     BYTE      T4T3M
      000000C1H   SFRSYM    DATA     BYTE      WDT_CONTR
      000000DFH   SFRSYM    DATA     BYTE      IP3
      000000F4H   SFRSYM    DATA     BYTE      USBCON
      000000B5H   SFRSYM    DATA     BYTE      IP2
      000000FFH   SFRSYM    DATA     BYTE      RSTCFG
      000000C7H   SFRSYM    DATA     BYTE      IAP_CONTR
      000000F9H   SFRSYM    DATA     BYTE      LINICR
      0000008EH   SFRSYM    DATA     BYTE      AUXR
      000000AFH   SFRSYM    DATA     BYTE      IE2
      00000088H   SFRSYM    DATA     BYTE      TCON
      00000089H   SFRSYM    DATA     BYTE      TMOD
      00000098H   SFRSYM    DATA     BYTE      SCON
      000000F1H   SFRSYM    DATA     BYTE      CANICR
      00000087H   SFRSYM    DATA     BYTE      PCON
      000000BCH   SFRSYM    DATA     BYTE      ADC_CONTR
      000000E7H   SFRSYM    DATA     BYTE      CMPCR2
      000000E6H   SFRSYM    DATA     BYTE      CMPCR1
      000000DEH   SFRSYM    DATA     BYTE      ADCCFG
      000000B8H   SFRSYM    DATA     BYTE      IP
      0000008FH   SFRSYM    DATA     BYTE      INTCLKO
      000000EEH   SFRSYM    DATA     BYTE      IP3H
      000000B6H   SFRSYM    DATA     BYTE      IP2H
      000000A8H   SFRSYM    DATA     BYTE      IE
      000000BBH   SFRSYM    DATA     BYTE      P_SW3
      000000BAH   SFRSYM    DATA     BYTE      P_SW2
      000000A2H   SFRSYM    DATA     BYTE      P_SW1
      000000CEH   SFRSYM    DATA     BYTE      SPCTL
      000000F8H   SFRSYM    DATA     BYTE      P7
      000000E8H   SFRSYM    DATA     BYTE      P6
      000000C8H   SFRSYM    DATA     BYTE      P5
      000000C0H   SFRSYM    DATA     BYTE      P4
      000000B0H   SFRSYM    DATA     BYTE      P3
      000000A0H   SFRSYM    DATA     BYTE      P2
      00000090H   SFRSYM    DATA     BYTE      P1
      00000080H   SFRSYM    DATA     BYTE      P0

      ---         MODULE    ---      ---       ThreeMenu
L251 LINKER/LOCATER V4.66.93.0                                                        04/24/2024  23:59:23  PAGE 95


      00FF8385H   PUBLIC    CODE     ---       UI_ThreeMenu
      00FF006EH   PUBLIC    CODE     ---       IU_Three
      000003B9H   PUBLIC    EDATA    WORD      jy
      000003BBH   PUBLIC    EDATA    WORD      xxx
      000000D0H   SFRSYM    DATA     BYTE      PSW
      0000009DH   SFRSYM    DATA     BYTE      IRCBAND
      00000097H   SFRSYM    DATA     BYTE      AUXR2
      000000EFH   SFRSYM    DATA     BYTE      AUXINTIF
      000000FDH   SFRSYM    DATA     BYTE      S4CON
      000000ACH   SFRSYM    DATA     BYTE      S3CON
      0000009AH   SFRSYM    DATA     BYTE      S2CON
      000000B7H   SFRSYM    DATA     BYTE      IPH
      000000CDH   SFRSYM    DATA     BYTE      SPSTAT
      000000DDH   SFRSYM    DATA     BYTE      T4T3M
      000000C1H   SFRSYM    DATA     BYTE      WDT_CONTR
      000000DFH   SFRSYM    DATA     BYTE      IP3
      000000F4H   SFRSYM    DATA     BYTE      USBCON
      000000B5H   SFRSYM    DATA     BYTE      IP2
      000000FFH   SFRSYM    DATA     BYTE      RSTCFG
      000000C7H   SFRSYM    DATA     BYTE      IAP_CONTR
      000000F9H   SFRSYM    DATA     BYTE      LINICR
      0000008EH   SFRSYM    DATA     BYTE      AUXR
      000000AFH   SFRSYM    DATA     BYTE      IE2
      000000A0H.7 SFRSYM    DATA     BIT       P27
      000000C0H.5 SFRSYM    DATA     BIT       P45
      00000088H   SFRSYM    DATA     BYTE      TCON
      00000089H   SFRSYM    DATA     BYTE      TMOD
      00000098H   SFRSYM    DATA     BYTE      SCON
      000000F1H   SFRSYM    DATA     BYTE      CANICR
      00000087H   SFRSYM    DATA     BYTE      PCON
      000000BCH   SFRSYM    DATA     BYTE      ADC_CONTR
      000000E7H   SFRSYM    DATA     BYTE      CMPCR2
      000000E6H   SFRSYM    DATA     BYTE      CMPCR1
      000000DEH   SFRSYM    DATA     BYTE      ADCCFG
      000000B8H   SFRSYM    DATA     BYTE      IP
      0000008FH   SFRSYM    DATA     BYTE      INTCLKO
      000000EEH   SFRSYM    DATA     BYTE      IP3H
      000000B6H   SFRSYM    DATA     BYTE      IP2H
      000000A8H   SFRSYM    DATA     BYTE      IE
      000000BBH   SFRSYM    DATA     BYTE      P_SW3
      000000BAH   SFRSYM    DATA     BYTE      P_SW2
      000000A2H   SFRSYM    DATA     BYTE      P_SW1
      000000CEH   SFRSYM    DATA     BYTE      SPCTL
      000000F8H   SFRSYM    DATA     BYTE      P7
      000000E8H   SFRSYM    DATA     BYTE      P6
      000000C8H   SFRSYM    DATA     BYTE      P5
      000000C0H   SFRSYM    DATA     BYTE      P4
      000000B0H   SFRSYM    DATA     BYTE      P3
      000000A0H   SFRSYM    DATA     BYTE      P2
      00000090H   SFRSYM    DATA     BYTE      P1
      00000080H   SFRSYM    DATA     BYTE      P0

      00FF8385H   BLOCK     CODE     ---       LVL=0
      00FF8385H   LINE      CODE     ---       #21
      00FF8385H   LINE      CODE     ---       #23
      00FF8388H   LINE      CODE     ---       #24
      00FF83A9H   LINE      CODE     ---       #25
      00FF83C4H   LINE      CODE     ---       #26
      ---         BLOCKEND  ---      ---       LVL=0

      00FF006EH   BLOCK     CODE     ---       LVL=0
      00FF006EH   LINE      CODE     ---       #31
      00FF006EH   LINE      CODE     ---       #33
      00FF007DH   LINE      CODE     ---       #35
      00FF0083H   LINE      CODE     ---       #37
L251 LINKER/LOCATER V4.66.93.0                                                        04/24/2024  23:59:23  PAGE 96


      00FF0089H   LINE      CODE     ---       #38
      00FF0089H   LINE      CODE     ---       #39
      00FF008CH   LINE      CODE     ---       #41
      00FF0096H   LINE      CODE     ---       #42
      00FF00A8H   LINE      CODE     ---       #43
      00FF00A8H   LINE      CODE     ---       #44
      00FF00ABH   LINE      CODE     ---       #46
      00FF00B3H   LINE      CODE     ---       #47
      00FF00C5H   LINE      CODE     ---       #48
      00FF00C5H   LINE      CODE     ---       #49
      00FF00E1H   LINE      CODE     ---       #51
      00FF0102H   LINE      CODE     ---       #52
      00FF0112H   LINE      CODE     ---       #53
      00FF012AH   LINE      CODE     ---       #54
      00FF012AH   LINE      CODE     ---       #58
      ---         BLOCKEND  ---      ---       LVL=0

      ---         MODULE    ---      ---       time
      00FF91BCH   PUBLIC    CODE     ---       Sleep_delay_HalfMs
      00FF8F78H   PUBLIC    CODE     ---       Sleep_Thread
      00FF0006H   PUBLIC    CODE     ---       Delay10us
      00FF9140H   PUBLIC    CODE     ---       delay_ms
      00FF88D5H   PUBLIC    CODE     ---       Sleep_delay_Time
      000000D0H   SFRSYM    DATA     BYTE      PSW
      0000009DH   SFRSYM    DATA     BYTE      IRCBAND
      00000097H   SFRSYM    DATA     BYTE      AUXR2
      000000EFH   SFRSYM    DATA     BYTE      AUXINTIF
      000000FDH   SFRSYM    DATA     BYTE      S4CON
      000000ACH   SFRSYM    DATA     BYTE      S3CON
      0000009AH   SFRSYM    DATA     BYTE      S2CON
      000000B7H   SFRSYM    DATA     BYTE      IPH
      000000CDH   SFRSYM    DATA     BYTE      SPSTAT
      000000DDH   SFRSYM    DATA     BYTE      T4T3M
      000000C1H   SFRSYM    DATA     BYTE      WDT_CONTR
      00000088H.4 SFRSYM    DATA     BIT       TR0
      0000008AH   SFRSYM    DATA     BYTE      TL0
      0000008CH   SFRSYM    DATA     BYTE      TH0
      000000DFH   SFRSYM    DATA     BYTE      IP3
      000000F4H   SFRSYM    DATA     BYTE      USBCON
      000000B5H   SFRSYM    DATA     BYTE      IP2
      000000FFH   SFRSYM    DATA     BYTE      RSTCFG
      00000088H.5 SFRSYM    DATA     BIT       TF0
      000000A8H.1 SFRSYM    DATA     BIT       ET0
      000000C7H   SFRSYM    DATA     BYTE      IAP_CONTR
      000000F9H   SFRSYM    DATA     BYTE      LINICR
      0000008EH   SFRSYM    DATA     BYTE      AUXR
      000000AFH   SFRSYM    DATA     BYTE      IE2
      00000088H   SFRSYM    DATA     BYTE      TCON
      00000089H   SFRSYM    DATA     BYTE      TMOD
      00000098H   SFRSYM    DATA     BYTE      SCON
      000000F1H   SFRSYM    DATA     BYTE      CANICR
      00000087H   SFRSYM    DATA     BYTE      PCON
      000000BCH   SFRSYM    DATA     BYTE      ADC_CONTR
      000000E7H   SFRSYM    DATA     BYTE      CMPCR2
      000000E6H   SFRSYM    DATA     BYTE      CMPCR1
      000000DEH   SFRSYM    DATA     BYTE      ADCCFG
      000000B8H   SFRSYM    DATA     BYTE      IP
      0000008FH   SFRSYM    DATA     BYTE      INTCLKO
      000000EEH   SFRSYM    DATA     BYTE      IP3H
      00000087H.1 SFRSYM    DATA     BIT       PD
      000000B6H   SFRSYM    DATA     BYTE      IP2H
      000000A8H   SFRSYM    DATA     BYTE      IE
      000000BBH   SFRSYM    DATA     BYTE      P_SW3
      000000BAH   SFRSYM    DATA     BYTE      P_SW2
      000000A2H   SFRSYM    DATA     BYTE      P_SW1
L251 LINKER/LOCATER V4.66.93.0                                                        04/24/2024  23:59:23  PAGE 97


      000000CEH   SFRSYM    DATA     BYTE      SPCTL
      000000AAH   SFRSYM    DATA     BYTE      WKTCL
      000000F8H   SFRSYM    DATA     BYTE      P7
      000000E8H   SFRSYM    DATA     BYTE      P6
      000000C8H   SFRSYM    DATA     BYTE      P5
      000000C0H   SFRSYM    DATA     BYTE      P4
      000000ABH   SFRSYM    DATA     BYTE      WKTCH
      000000B0H   SFRSYM    DATA     BYTE      P3
      000000A0H   SFRSYM    DATA     BYTE      P2
      00000090H   SFRSYM    DATA     BYTE      P1
      00000080H   SFRSYM    DATA     BYTE      P0

      00FF9140H   BLOCK     CODE     ---       LVL=0
      R10         REGSYM    ---      BYTE      ms
      00FF9142H   BLOCK     CODE     NEAR LAB  LVL=1
      WR8         REGSYM    ---      WORD      i
      ---         BLOCKEND  ---      ---       LVL=1
      00FF9140H   LINE      CODE     ---       #31
      00FF9142H   LINE      CODE     ---       #32
      00FF9142H   LINE      CODE     ---       #34
      00FF9142H   LINE      CODE     ---       #35
      00FF9146H   LINE      CODE     ---       #36
      00FF914EH   LINE      CODE     ---       #37
      00FF9155H   LINE      CODE     ---       #38
      ---         BLOCKEND  ---      ---       LVL=0
      WR6         REGSYM    ---      INT       i

      00FF0006H   BLOCK     CODE     ---       LVL=0
      DR4         REGSYM    ---      DWORD     i
      00FF0006H   LINE      CODE     ---       #55
      00FF0006H   LINE      CODE     ---       #56
      00FF0006H   LINE      CODE     ---       #59
      00FF0007H   LINE      CODE     ---       #60
      00FF0008H   LINE      CODE     ---       #61
      00FF0009H   LINE      CODE     ---       #62
      00FF000DH   LINE      CODE     ---       #63
      00FF0011H   LINE      CODE     ---       #64
      ---         BLOCKEND  ---      ---       LVL=0
      DR4         REGSYM    ---      DWORD     i

      00FF91BCH   BLOCK     CODE     ---       LVL=0
      WR6         REGSYM    ---      WORD      ms
      00FF91BCH   LINE      CODE     ---       #85
      00FF91BCH   LINE      CODE     ---       #87
      00FF91C2H   LINE      CODE     ---       #89
      00FF91C5H   LINE      CODE     ---       #90
      00FF91CBH   LINE      CODE     ---       #91
      00FF91CFH   LINE      CODE     ---       #92
      ---         BLOCKEND  ---      ---       LVL=0

      00FF88D5H   BLOCK     CODE     ---       LVL=0
      WR14        REGSYM    ---      WORD      sleep_dat
      00FF88D9H   BLOCK     CODE     NEAR LAB  LVL=1
      WR6         REGSYM    ---      WORD      kk
      ---         BLOCKEND  ---      ---       LVL=1
      00FF88D5H   LINE      CODE     ---       #102
      00FF88D9H   LINE      CODE     ---       #103
      00FF88D9H   LINE      CODE     ---       #104
      00FF88D9H   LINE      CODE     ---       #105
      00FF88D9H   LINE      CODE     ---       #106
      00FF88DBH   LINE      CODE     ---       #108
      00FF88E0H   LINE      CODE     ---       #109
      00FF88E1H   LINE      CODE     ---       #110
      00FF88E2H   LINE      CODE     ---       #111
      00FF88E3H   LINE      CODE     ---       #112
L251 LINKER/LOCATER V4.66.93.0                                                        04/24/2024  23:59:23  PAGE 98


      00FF88E4H   LINE      CODE     ---       #113
      00FF88E7H   LINE      CODE     ---       #114
      00FF88E8H   LINE      CODE     ---       #115
      00FF88E9H   LINE      CODE     ---       #116
      00FF88EAH   LINE      CODE     ---       #117
      00FF88EBH   LINE      CODE     ---       #118
      00FF88EEH   LINE      CODE     ---       #119
      00FF88F2H   LINE      CODE     ---       #120
      00FF88F8H   LINE      CODE     ---       #121
      00FF88FEH   LINE      CODE     ---       #122
      00FF8900H   LINE      CODE     ---       #124
      00FF8902H   LINE      CODE     ---       #125
      00FF8904H   LINE      CODE     ---       #130
      00FF8906H   LINE      CODE     ---       #136
      00FF8906H   LINE      CODE     ---       #139
      00FF8907H   LINE      CODE     ---       #140
      00FF890BH   LINE      CODE     ---       #142
      ---         BLOCKEND  ---      ---       LVL=0

      00FF8F78H   BLOCK     CODE     ---       LVL=0
      00FF8F78H   LINE      CODE     ---       #152
      00FF8F78H   LINE      CODE     ---       #154
      00FF8F80H   LINE      CODE     ---       #156
      00FF8F87H   LINE      CODE     ---       #158
      00FF8F87H   LINE      CODE     ---       #161
      00FF8F8AH   LINE      CODE     ---       #164
      00FF8F8BH   LINE      CODE     ---       #165
      00FF8F8CH   LINE      CODE     ---       #166
      00FF8F8DH   LINE      CODE     ---       #167
      00FF8F8EH   LINE      CODE     ---       #168
      00FF8F91H   LINE      CODE     ---       #169
      00FF8F92H   LINE      CODE     ---       #170
      00FF8F93H   LINE      CODE     ---       #171
      00FF8F94H   LINE      CODE     ---       #172
      00FF8F95H   LINE      CODE     ---       #173
      00FF8F95H   LINE      CODE     ---       #174
      ---         BLOCKEND  ---      ---       LVL=0

      ---         MODULE    ---      ---       Time_Interruption
      00FF5144H   PUBLIC    CODE     ---       Time_Interruption_1S
      000003C0H   PUBLIC    EDATA    BYTE      yya
      000000D0H   SFRSYM    DATA     BYTE      PSW
      0000009DH   SFRSYM    DATA     BYTE      IRCBAND
      00000097H   SFRSYM    DATA     BYTE      AUXR2
      000000EFH   SFRSYM    DATA     BYTE      AUXINTIF
      000000FDH   SFRSYM    DATA     BYTE      S4CON
      000000ACH   SFRSYM    DATA     BYTE      S3CON
      0000009AH   SFRSYM    DATA     BYTE      S2CON
      000000B7H   SFRSYM    DATA     BYTE      IPH
      000000CDH   SFRSYM    DATA     BYTE      SPSTAT
      000000DDH   SFRSYM    DATA     BYTE      T4T3M
      000000C1H   SFRSYM    DATA     BYTE      WDT_CONTR
      000000DFH   SFRSYM    DATA     BYTE      IP3
      000000F4H   SFRSYM    DATA     BYTE      USBCON
      000000B5H   SFRSYM    DATA     BYTE      IP2
      000000FFH   SFRSYM    DATA     BYTE      RSTCFG
      000000C7H   SFRSYM    DATA     BYTE      IAP_CONTR
      000000F9H   SFRSYM    DATA     BYTE      LINICR
      0000008EH   SFRSYM    DATA     BYTE      AUXR
      000000AFH   SFRSYM    DATA     BYTE      IE2
      00000088H   SFRSYM    DATA     BYTE      TCON
      00000089H   SFRSYM    DATA     BYTE      TMOD
      00000098H   SFRSYM    DATA     BYTE      SCON
      000000F1H   SFRSYM    DATA     BYTE      CANICR
      00000087H   SFRSYM    DATA     BYTE      PCON
L251 LINKER/LOCATER V4.66.93.0                                                        04/24/2024  23:59:23  PAGE 99


      000000BCH   SFRSYM    DATA     BYTE      ADC_CONTR
      000000E7H   SFRSYM    DATA     BYTE      CMPCR2
      000000E6H   SFRSYM    DATA     BYTE      CMPCR1
      000000DEH   SFRSYM    DATA     BYTE      ADCCFG
      000000B8H   SFRSYM    DATA     BYTE      IP
      0000008FH   SFRSYM    DATA     BYTE      INTCLKO
      000000EEH   SFRSYM    DATA     BYTE      IP3H
      000000B6H   SFRSYM    DATA     BYTE      IP2H
      000000A8H   SFRSYM    DATA     BYTE      IE
      000000BBH   SFRSYM    DATA     BYTE      P_SW3
      000000BAH   SFRSYM    DATA     BYTE      P_SW2
      000000A2H   SFRSYM    DATA     BYTE      P_SW1
      000000CEH   SFRSYM    DATA     BYTE      SPCTL
      000000F8H   SFRSYM    DATA     BYTE      P7
      000000E8H   SFRSYM    DATA     BYTE      P6
      000000C8H   SFRSYM    DATA     BYTE      P5
      000000C0H   SFRSYM    DATA     BYTE      P4
      000000B0H   SFRSYM    DATA     BYTE      P3
      000000A0H   SFRSYM    DATA     BYTE      P2
      00000090H   SFRSYM    DATA     BYTE      P1
      00000080H   SFRSYM    DATA     BYTE      P0

      00FF5144H   BLOCK     CODE     ---       LVL=0
      00FF5146H   BLOCK     CODE     NEAR LAB  LVL=1
      R15         REGSYM    ---      BYTE      i
      ---         BLOCKEND  ---      ---       LVL=1
      00FF5144H   LINE      CODE     ---       #38
      00FF5146H   LINE      CODE     ---       #39
      00FF5146H   LINE      CODE     ---       #40
      00FF5146H   LINE      CODE     ---       #50
      00FF5155H   LINE      CODE     ---       #52
      00FF515FH   LINE      CODE     ---       #56
      00FF5165H   LINE      CODE     ---       #58
      00FF5171H   LINE      CODE     ---       #59
      00FF517DH   LINE      CODE     ---       #60
      00FF5180H   LINE      CODE     ---       #61
      00FF51C6H   LINE      CODE     ---       #63
      00FF51D2H   LINE      CODE     ---       #64
      00FF51D5H   LINE      CODE     ---       #65
      00FF51D5H   LINE      CODE     ---       #66
      00FF51D8H   LINE      CODE     ---       #67
      00FF51E2H   LINE      CODE     ---       #68
      00FF5212H   LINE      CODE     ---       #70
      00FF5215H   LINE      CODE     ---       #71
      00FF5222H   LINE      CODE     ---       #72
      00FF522FH   LINE      CODE     ---       #73
      00FF5232H   LINE      CODE     ---       #74
      00FF5249H   LINE      CODE     ---       #75
      00FF5254H   LINE      CODE     ---       #76
      00FF5260H   LINE      CODE     ---       #78
      00FF526CH   LINE      CODE     ---       #80
      00FF526FH   LINE      CODE     ---       #81
      00FF526FH   LINE      CODE     ---       #84
      00FF529FH   LINE      CODE     ---       #86
      00FF52A5H   LINE      CODE     ---       #88
      00FF52A8H   LINE      CODE     ---       #89
      00FF52ABH   LINE      CODE     ---       #90
      00FF52ABH   LINE      CODE     ---       #92
      00FF52B7H   LINE      CODE     ---       #93
      00FF52C3H   LINE      CODE     ---       #94
      00FF52C3H   LINE      CODE     ---       #96
      00FF52C8H   LINE      CODE     ---       #98
      00FF52C9H   LINE      CODE     ---       #101
      00FF52CCH   LINE      CODE     ---       #110
      00FF52D6H   LINE      CODE     ---       #111
L251 LINKER/LOCATER V4.66.93.0                                                        04/24/2024  23:59:23  PAGE 100


      00FF52D6H   LINE      CODE     ---       #115
      ---         BLOCKEND  ---      ---       LVL=0

      ---         MODULE    ---      ---       TV_Mode
      00FF8E56H   PUBLIC    CODE     ---       time_synchronization
      00FF694FH   PUBLIC    CODE     ---       TVMode2_int
      00FF928EH   PUBLIC    CODE     ---       TVMode3_int
      00FF7DFEH   PUBLIC    CODE     ---       time_show_s
      00FF4139H   PUBLIC    CODE     ---       IU_TVMode
      00FF6398H   PUBLIC    CODE     ---       Time_comparison
      00FF84DBH   PUBLIC    CODE     ---       Week_conversion
      00FF4385H   PUBLIC    CODE     ---       TVMode_1
      00FF5A6FH   PUBLIC    CODE     ---       TVMode_2
      00FF753FH   PUBLIC    CODE     ---       TVMode_3
      00FF5469H   PUBLIC    CODE     ---       TVMode_int
      00FF843AH   PUBLIC    CODE     ---       UI_humidity
      00FF7A40H   PUBLIC    CODE     ---       UI_pressure
      000003BDH   PUBLIC    EDATA    WORD      Low_wendu
      000000D0H   SFRSYM    DATA     BYTE      PSW
      0000009DH   SFRSYM    DATA     BYTE      IRCBAND
      00000097H   SFRSYM    DATA     BYTE      AUXR2
      000000EFH   SFRSYM    DATA     BYTE      AUXINTIF
      000000FDH   SFRSYM    DATA     BYTE      S4CON
      000000ACH   SFRSYM    DATA     BYTE      S3CON
      0000009AH   SFRSYM    DATA     BYTE      S2CON
      000000B7H   SFRSYM    DATA     BYTE      IPH
      000000CDH   SFRSYM    DATA     BYTE      SPSTAT
      000000DDH   SFRSYM    DATA     BYTE      T4T3M
      000000C1H   SFRSYM    DATA     BYTE      WDT_CONTR
      000000DFH   SFRSYM    DATA     BYTE      IP3
      000000F4H   SFRSYM    DATA     BYTE      USBCON
      000000B5H   SFRSYM    DATA     BYTE      IP2
      000000FFH   SFRSYM    DATA     BYTE      RSTCFG
      000000C7H   SFRSYM    DATA     BYTE      IAP_CONTR
      000000F9H   SFRSYM    DATA     BYTE      LINICR
      0000008EH   SFRSYM    DATA     BYTE      AUXR
      000000AFH   SFRSYM    DATA     BYTE      IE2
      000000C0H.6 SFRSYM    DATA     BIT       P46
      000000A0H.7 SFRSYM    DATA     BIT       P27
      000000C0H.5 SFRSYM    DATA     BIT       P45
      00000088H   SFRSYM    DATA     BYTE      TCON
      00000089H   SFRSYM    DATA     BYTE      TMOD
      00000098H   SFRSYM    DATA     BYTE      SCON
      000000F1H   SFRSYM    DATA     BYTE      CANICR
      00000087H   SFRSYM    DATA     BYTE      PCON
      000000BCH   SFRSYM    DATA     BYTE      ADC_CONTR
      000000E7H   SFRSYM    DATA     BYTE      CMPCR2
      000000E6H   SFRSYM    DATA     BYTE      CMPCR1
      000000DEH   SFRSYM    DATA     BYTE      ADCCFG
      000000B8H   SFRSYM    DATA     BYTE      IP
      0000008FH   SFRSYM    DATA     BYTE      INTCLKO
      000000EEH   SFRSYM    DATA     BYTE      IP3H
      000000B6H   SFRSYM    DATA     BYTE      IP2H
      000000A8H   SFRSYM    DATA     BYTE      IE
      000000BBH   SFRSYM    DATA     BYTE      P_SW3
      000000BAH   SFRSYM    DATA     BYTE      P_SW2
      000000A2H   SFRSYM    DATA     BYTE      P_SW1
      000000CEH   SFRSYM    DATA     BYTE      SPCTL
      000000F8H   SFRSYM    DATA     BYTE      P7
      000000E8H   SFRSYM    DATA     BYTE      P6
      000000C8H   SFRSYM    DATA     BYTE      P5
      000000C0H   SFRSYM    DATA     BYTE      P4
      000000B0H   SFRSYM    DATA     BYTE      P3
      000000A0H   SFRSYM    DATA     BYTE      P2
      00000090H   SFRSYM    DATA     BYTE      P1
L251 LINKER/LOCATER V4.66.93.0                                                        04/24/2024  23:59:23  PAGE 101


      00000080H   SFRSYM    DATA     BYTE      P0

      00FF7DFEH   BLOCK     CODE     ---       LVL=0
      00FF7DFEH   LINE      CODE     ---       #18
      00FF7DFEH   LINE      CODE     ---       #20
      00FF7E11H   LINE      CODE     ---       #21
      00FF7E21H   LINE      CODE     ---       #22
      00FF7E2BH   LINE      CODE     ---       #23
      00FF7E3FH   LINE      CODE     ---       #24
      00FF7E4FH   LINE      CODE     ---       #25
      00FF7E59H   LINE      CODE     ---       #26
      00FF7E6DH   LINE      CODE     ---       #27
      ---         BLOCKEND  ---      ---       LVL=0

      00FF843AH   BLOCK     CODE     ---       LVL=0
      00FF843AH   LINE      CODE     ---       #35
      00FF843AH   LINE      CODE     ---       #37
      00FF8450H   LINE      CODE     ---       #38
      00FF846EH   LINE      CODE     ---       #39
      ---         BLOCKEND  ---      ---       LVL=0

      00FF7A40H   BLOCK     CODE     ---       LVL=0
      00FF7A42H   BLOCK     CODE     NEAR LAB  LVL=1
      WR14        REGSYM    ---      WORD      k
      ---         BLOCKEND  ---      ---       LVL=1
      00FF7A40H   LINE      CODE     ---       #43
      00FF7A42H   LINE      CODE     ---       #44
      00FF7A42H   LINE      CODE     ---       #45
      00FF7A42H   LINE      CODE     ---       #47
      00FF7A55H   LINE      CODE     ---       #50
      00FF7A67H   LINE      CODE     ---       #52
      00FF7A81H   LINE      CODE     ---       #53
      00FF7A9BH   LINE      CODE     ---       #54
      00FF7AB5H   LINE      CODE     ---       #55
      00FF7ABBH   LINE      CODE     ---       #56
      00FF7ABFH   LINE      CODE     ---       #58
      00FF7AC6H   LINE      CODE     ---       #59
      00FF7AC8H   LINE      CODE     ---       #62
      00FF7AD3H   LINE      CODE     ---       #63
      00FF7AD3H   LINE      CODE     ---       #64
      ---         BLOCKEND  ---      ---       LVL=0

      00FF84DBH   BLOCK     CODE     ---       LVL=0
      R10         REGSYM    ---      BYTE      p
      00FF84DBH   LINE      CODE     ---       #69
      00FF84DBH   LINE      CODE     ---       #70
      00FF84DBH   LINE      CODE     ---       #71
      00FF84DDH   LINE      CODE     ---       #72
      00FF84E8H   LINE      CODE     ---       #74
      00FF84EBH   LINE      CODE     ---       #75
      00FF84EDH   LINE      CODE     ---       #76
      00FF84F2H   LINE      CODE     ---       #78
      00FF84F5H   LINE      CODE     ---       #79
      00FF84F7H   LINE      CODE     ---       #80
      00FF84FCH   LINE      CODE     ---       #82
      00FF84FFH   LINE      CODE     ---       #83
      00FF8501H   LINE      CODE     ---       #84
      00FF8506H   LINE      CODE     ---       #86
      00FF8509H   LINE      CODE     ---       #87
      00FF850BH   LINE      CODE     ---       #88
      00FF8510H   LINE      CODE     ---       #90
      00FF8513H   LINE      CODE     ---       #91
      00FF8515H   LINE      CODE     ---       #92
      00FF851AH   LINE      CODE     ---       #94
      00FF851DH   LINE      CODE     ---       #95
L251 LINKER/LOCATER V4.66.93.0                                                        04/24/2024  23:59:23  PAGE 102


      00FF851FH   LINE      CODE     ---       #96
      00FF8524H   LINE      CODE     ---       #98
      00FF8527H   LINE      CODE     ---       #99
      00FF8527H   LINE      CODE     ---       #100
      00FF8529H   LINE      CODE     ---       #104
      ---         BLOCKEND  ---      ---       LVL=0

      00FF6398H   BLOCK     CODE     ---       LVL=0
      WR6         REGSYM    ---      WORD      j
      00FF6398H   LINE      CODE     ---       #110
      00FF6398H   LINE      CODE     ---       #111
      00FF6398H   LINE      CODE     ---       #112
      00FF639AH   LINE      CODE     ---       #114
      00FF63A8H   LINE      CODE     ---       #116
      00FF63C8H   LINE      CODE     ---       #117
      00FF63D7H   LINE      CODE     ---       #118
      00FF63D7H   LINE      CODE     ---       #120
      00FF63E5H   LINE      CODE     ---       #122
      00FF6404H   LINE      CODE     ---       #123
      00FF6413H   LINE      CODE     ---       #124
      00FF6413H   LINE      CODE     ---       #126
      00FF6421H   LINE      CODE     ---       #128
      00FF6440H   LINE      CODE     ---       #129
      00FF644FH   LINE      CODE     ---       #130
      00FF644FH   LINE      CODE     ---       #131
      00FF6460H   LINE      CODE     ---       #132
      00FF6471H   LINE      CODE     ---       #133
      00FF6482H   LINE      CODE     ---       #134
      00FF6493H   LINE      CODE     ---       #136
      00FF6493H   LINE      CODE     ---       #137
      ---         BLOCKEND  ---      ---       LVL=0

      00FF8E56H   BLOCK     CODE     ---       LVL=0
      R10         REGSYM    ---      BYTE      i
      00FF8E56H   LINE      CODE     ---       #141
      00FF8E56H   LINE      CODE     ---       #142
      00FF8E56H   LINE      CODE     ---       #143
      00FF8E56H   LINE      CODE     ---       #144
      00FF8E58H   LINE      CODE     ---       #146
      00FF8E72H   LINE      CODE     ---       #147
      00FF8E79H   LINE      CODE     ---       #148
      ---         BLOCKEND  ---      ---       LVL=0

      00FF5469H   BLOCK     CODE     ---       LVL=0
      00FF5469H   LINE      CODE     ---       #151
      00FF5469H   LINE      CODE     ---       #154
      00FF5470H   LINE      CODE     ---       #157
      00FF5479H   LINE      CODE     ---       #158
      00FF549AH   LINE      CODE     ---       #160
      00FF54A4H   LINE      CODE     ---       #162
      00FF54C5H   LINE      CODE     ---       #164
      00FF54CFH   LINE      CODE     ---       #166
      00FF54F0H   LINE      CODE     ---       #168
      00FF54FDH   LINE      CODE     ---       #170
      00FF5508H   LINE      CODE     ---       #172
      00FF5513H   LINE      CODE     ---       #175
      00FF551BH   LINE      CODE     ---       #176
      00FF5523H   LINE      CODE     ---       #178
      00FF5548H   LINE      CODE     ---       #179
      00FF5569H   LINE      CODE     ---       #180
      00FF558EH   LINE      CODE     ---       #181
      00FF55AFH   LINE      CODE     ---       #182
      00FF55D4H   LINE      CODE     ---       #183
      00FF55F5H   LINE      CODE     ---       #185
      ---         BLOCKEND  ---      ---       LVL=0
L251 LINKER/LOCATER V4.66.93.0                                                        04/24/2024  23:59:23  PAGE 103



      00FF694FH   BLOCK     CODE     ---       LVL=0
      00FF694FH   LINE      CODE     ---       #191
      00FF694FH   LINE      CODE     ---       #194
      00FF6956H   LINE      CODE     ---       #195
      00FF6959H   LINE      CODE     ---       #196
      00FF697CH   LINE      CODE     ---       #197
      00FF69A7H   LINE      CODE     ---       #198
      00FF69B6H   LINE      CODE     ---       #199
      00FF69E1H   LINE      CODE     ---       #200
      00FF69F0H   LINE      CODE     ---       #202
      00FF69F3H   LINE      CODE     ---       #203
      00FF69FEH   LINE      CODE     ---       #204
      00FF6A09H   LINE      CODE     ---       #205
      00FF6A14H   LINE      CODE     ---       #206
      00FF6A1FH   LINE      CODE     ---       #207
      00FF6A2AH   LINE      CODE     ---       #208
      00FF6A35H   LINE      CODE     ---       #209
      00FF6A38H   LINE      CODE     ---       #211
      ---         BLOCKEND  ---      ---       LVL=0

      00FF928EH   BLOCK     CODE     ---       LVL=0
      00FF928EH   LINE      CODE     ---       #216
      00FF928EH   LINE      CODE     ---       #219
      00FF9291H   LINE      CODE     ---       #220
      00FF9294H   LINE      CODE     ---       #229
      00FF9297H   LINE      CODE     ---       #230
      ---         BLOCKEND  ---      ---       LVL=0

      00FF4385H   BLOCK     CODE     ---       LVL=0
      00FF4389H   BLOCK     CODE     NEAR LAB  LVL=1
      WR14        REGSYM    ---      WORD      dat
      ---         BLOCKEND  ---      ---       LVL=1
      00FF4385H   LINE      CODE     ---       #264
      00FF4389H   LINE      CODE     ---       #265
      00FF4389H   LINE      CODE     ---       #266
      00FF4389H   LINE      CODE     ---       #267
      00FF438EH   LINE      CODE     ---       #268
      00FF4394H   LINE      CODE     ---       #271
      00FF43C3H   LINE      CODE     ---       #272
      00FF43CFH   LINE      CODE     ---       #275
      00FF43D6H   LINE      CODE     ---       #276
      00FF43E2H   LINE      CODE     ---       #277
      00FF43E2H   LINE      CODE     ---       #280
      00FF43EAH   LINE      CODE     ---       #282
      00FF441DH   LINE      CODE     ---       #283
      00FF441DH   LINE      CODE     ---       #284
      00FF4425H   LINE      CODE     ---       #286
      00FF4454H   LINE      CODE     ---       #287
      00FF4454H   LINE      CODE     ---       #288
      00FF445CH   LINE      CODE     ---       #290
      00FF448FH   LINE      CODE     ---       #291
      00FF448FH   LINE      CODE     ---       #292
      00FF4497H   LINE      CODE     ---       #294
      00FF44A5H   LINE      CODE     ---       #296
      00FF44CBH   LINE      CODE     ---       #297
      00FF44CDH   LINE      CODE     ---       #300
      00FF44F6H   LINE      CODE     ---       #301
      00FF44F6H   LINE      CODE     ---       #302
      00FF44F6H   LINE      CODE     ---       #303
      00FF44FEH   LINE      CODE     ---       #305
      00FF4531H   LINE      CODE     ---       #306
      00FF4531H   LINE      CODE     ---       #307
      00FF4539H   LINE      CODE     ---       #309
      00FF4546H   LINE      CODE     ---       #310
L251 LINKER/LOCATER V4.66.93.0                                                        04/24/2024  23:59:23  PAGE 104


      00FF4546H   LINE      CODE     ---       #311
      00FF454EH   LINE      CODE     ---       #313
      00FF456FH   LINE      CODE     ---       #314
      00FF456FH   LINE      CODE     ---       #315
      00FF4577H   LINE      CODE     ---       #317
      00FF4598H   LINE      CODE     ---       #318
      00FF4598H   LINE      CODE     ---       #319
      00FF45A0H   LINE      CODE     ---       #321
      00FF45C1H   LINE      CODE     ---       #322
      ---         BLOCKEND  ---      ---       LVL=0

      00FF5A6FH   BLOCK     CODE     ---       LVL=0
      00FF5A71H   BLOCK     CODE     NEAR LAB  LVL=1
      WR14        REGSYM    ---      WORD      dat
      ---         BLOCKEND  ---      ---       LVL=1
      00FF5A6FH   LINE      CODE     ---       #331
      00FF5A71H   LINE      CODE     ---       #332
      00FF5A71H   LINE      CODE     ---       #333
      00FF5A71H   LINE      CODE     ---       #334
      00FF5A76H   LINE      CODE     ---       #336
      00FF5A7DH   LINE      CODE     ---       #337
      00FF5A85H   LINE      CODE     ---       #339
      00FF5A95H   LINE      CODE     ---       #340
      00FF5A95H   LINE      CODE     ---       #341
      00FF5A9DH   LINE      CODE     ---       #343
      00FF5AB1H   LINE      CODE     ---       #344
      00FF5AB1H   LINE      CODE     ---       #347
      00FF5AB9H   LINE      CODE     ---       #349
      00FF5AC9H   LINE      CODE     ---       #350
      00FF5AC9H   LINE      CODE     ---       #351
      00FF5AD1H   LINE      CODE     ---       #353
      00FF5AE5H   LINE      CODE     ---       #354
      00FF5AE5H   LINE      CODE     ---       #357
      00FF5AEDH   LINE      CODE     ---       #359
      00FF5AFDH   LINE      CODE     ---       #361
      00FF5AFDH   LINE      CODE     ---       #362
      00FF5B05H   LINE      CODE     ---       #364
      00FF5B18H   LINE      CODE     ---       #365
      00FF5B18H   LINE      CODE     ---       #368
      00FF5B24H   LINE      CODE     ---       #369
      00FF5B2EH   LINE      CODE     ---       #371
      00FF5B45H   LINE      CODE     ---       #372
      00FF5B45H   LINE      CODE     ---       #375
      00FF5B57H   LINE      CODE     ---       #376
      00FF5B63H   LINE      CODE     ---       #378
      00FF5B7AH   LINE      CODE     ---       #379
      00FF5B7AH   LINE      CODE     ---       #382
      00FF5B8CH   LINE      CODE     ---       #383
      00FF5B98H   LINE      CODE     ---       #385
      00FF5BAFH   LINE      CODE     ---       #386
      00FF5BAFH   LINE      CODE     ---       #389
      00FF5BB2H   LINE      CODE     ---       #390
      00FF5BB5H   LINE      CODE     ---       #392
      00FF5BBFH   LINE      CODE     ---       #393
      00FF5BC2H   LINE      CODE     ---       #394
      ---         BLOCKEND  ---      ---       LVL=0

      00FF753FH   BLOCK     CODE     ---       LVL=0
      00FF7541H   BLOCK     CODE     NEAR LAB  LVL=1
      WR14        REGSYM    ---      WORD      dat
      ---         BLOCKEND  ---      ---       LVL=1
      00FF753FH   LINE      CODE     ---       #398
      00FF7541H   LINE      CODE     ---       #399
      00FF7541H   LINE      CODE     ---       #400
      00FF7541H   LINE      CODE     ---       #401
L251 LINKER/LOCATER V4.66.93.0                                                        04/24/2024  23:59:23  PAGE 105


      00FF7546H   LINE      CODE     ---       #403
      00FF754CH   LINE      CODE     ---       #405
      00FF755CH   LINE      CODE     ---       #406
      00FF755CH   LINE      CODE     ---       #407
      00FF7564H   LINE      CODE     ---       #409
      00FF7578H   LINE      CODE     ---       #410
      00FF7578H   LINE      CODE     ---       #413
      00FF7580H   LINE      CODE     ---       #415
      00FF7590H   LINE      CODE     ---       #416
      00FF7590H   LINE      CODE     ---       #417
      00FF7598H   LINE      CODE     ---       #419
      00FF75ACH   LINE      CODE     ---       #420
      00FF75ACH   LINE      CODE     ---       #423
      00FF75B4H   LINE      CODE     ---       #425
      00FF75C4H   LINE      CODE     ---       #427
      00FF75C4H   LINE      CODE     ---       #428
      00FF75CCH   LINE      CODE     ---       #430
      00FF75DFH   LINE      CODE     ---       #431
      00FF75DFH   LINE      CODE     ---       #433
      00FF75E2H   LINE      CODE     ---       #440
      00FF75E5H   LINE      CODE     ---       #441
      ---         BLOCKEND  ---      ---       LVL=0

      00FF4139H   BLOCK     CODE     ---       LVL=0
      00FF413BH   BLOCK     CODE     NEAR LAB  LVL=1
      R11         REGSYM    ---      BYTE      a
      ---         BLOCKEND  ---      ---       LVL=1
      00FF4139H   LINE      CODE     ---       #449
      00FF413BH   LINE      CODE     ---       #450
      00FF413BH   LINE      CODE     ---       #451
      00FF413BH   LINE      CODE     ---       #452
      00FF4166H   LINE      CODE     ---       #454
      00FF4176H   LINE      CODE     ---       #456
      00FF417FH   LINE      CODE     ---       #457
      00FF417FH   LINE      CODE     ---       #458
      00FF419BH   LINE      CODE     ---       #460
      00FF41ABH   LINE      CODE     ---       #462
      00FF41B5H   LINE      CODE     ---       #463
      00FF41C2H   LINE      CODE     ---       #464
      00FF41CEH   LINE      CODE     ---       #465
      00FF41CEH   LINE      CODE     ---       #466
      00FF41E4H   LINE      CODE     ---       #468
      00FF41E7H   LINE      CODE     ---       #469
      00FF41F2H   LINE      CODE     ---       #470
      00FF41F2H   LINE      CODE     ---       #471
      00FF4208H   LINE      CODE     ---       #473
      00FF4208H   LINE      CODE     ---       #474
      00FF4208H   LINE      CODE     ---       #475
      00FF4208H   LINE      CODE     ---       #479
      00FF420AH   LINE      CODE     ---       #480
      00FF4226H   LINE      CODE     ---       #482
      00FF4229H   LINE      CODE     ---       #483
      00FF4229H   LINE      CODE     ---       #484
      00FF4229H   LINE      CODE     ---       #485
      00FF422BH   LINE      CODE     ---       #486
      00FF4247H   LINE      CODE     ---       #488
      00FF424AH   LINE      CODE     ---       #489
      00FF4252H   LINE      CODE     ---       #490
      00FF4255H   LINE      CODE     ---       #491
      00FF4255H   LINE      CODE     ---       #494
      00FF426BH   LINE      CODE     ---       #496
      00FF42A9H   LINE      CODE     ---       #498
      00FF42B4H   LINE      CODE     ---       #499
      00FF42BAH   LINE      CODE     ---       #501
      00FF42CDH   LINE      CODE     ---       #503
L251 LINKER/LOCATER V4.66.93.0                                                        04/24/2024  23:59:23  PAGE 106


      00FF42D9H   LINE      CODE     ---       #505
      00FF42DDH   LINE      CODE     ---       #506
      00FF42DDH   LINE      CODE     ---       #507
      00FF42DFH   LINE      CODE     ---       #508
      00FF42EBH   LINE      CODE     ---       #510
      00FF42F5H   LINE      CODE     ---       #511
      00FF42FBH   LINE      CODE     ---       #512
      00FF42FBH   LINE      CODE     ---       #513
      00FF42FBH   LINE      CODE     ---       #514
      00FF42FDH   LINE      CODE     ---       #516
      00FF4303H   LINE      CODE     ---       #518
      00FF4313H   LINE      CODE     ---       #520
      00FF431FH   LINE      CODE     ---       #522
      00FF4323H   LINE      CODE     ---       #523
      00FF4323H   LINE      CODE     ---       #524
      00FF4325H   LINE      CODE     ---       #525
      00FF4331H   LINE      CODE     ---       #527
      00FF433BH   LINE      CODE     ---       #528
      00FF4341H   LINE      CODE     ---       #529
      00FF4341H   LINE      CODE     ---       #530
      00FF4349H   LINE      CODE     ---       #531
      00FF434BH   LINE      CODE     ---       #533
      00FF4351H   LINE      CODE     ---       #535
      00FF4361H   LINE      CODE     ---       #537
      00FF436BH   LINE      CODE     ---       #538
      00FF4371H   LINE      CODE     ---       #539
      00FF4379H   LINE      CODE     ---       #540
      00FF4379H   LINE      CODE     ---       #542
      00FF4382H   LINE      CODE     ---       #543
      ---         BLOCKEND  ---      ---       LVL=0

      ---         MODULE    ---      ---       UART1
      00010AF5H   PUBLIC    XDATA    ---       DMABuffer
      00010B55H   PUBLIC    XDATA    ---       DMABufferRX
      000000D0H   SFRSYM    DATA     BYTE      PSW
      0000009DH   SFRSYM    DATA     BYTE      IRCBAND
      00000097H   SFRSYM    DATA     BYTE      AUXR2
      000000EFH   SFRSYM    DATA     BYTE      AUXINTIF
      000000FDH   SFRSYM    DATA     BYTE      S4CON
      000000ACH   SFRSYM    DATA     BYTE      S3CON
      0000009AH   SFRSYM    DATA     BYTE      S2CON
      00000098H.4 SFRSYM    DATA     BIT       REN
      000000B7H   SFRSYM    DATA     BYTE      IPH
      000000CDH   SFRSYM    DATA     BYTE      SPSTAT
      000000DDH   SFRSYM    DATA     BYTE      T4T3M
      000000C1H   SFRSYM    DATA     BYTE      WDT_CONTR
      00000088H.6 SFRSYM    DATA     BIT       TR1
      0000008BH   SFRSYM    DATA     BYTE      TL1
      0000008DH   SFRSYM    DATA     BYTE      TH1
      000000DFH   SFRSYM    DATA     BYTE      IP3
      000000F4H   SFRSYM    DATA     BYTE      USBCON
      000000B5H   SFRSYM    DATA     BYTE      IP2
      000000FFH   SFRSYM    DATA     BYTE      RSTCFG
      000000A8H.3 SFRSYM    DATA     BIT       ET1
      000000C7H   SFRSYM    DATA     BYTE      IAP_CONTR
      000000F9H   SFRSYM    DATA     BYTE      LINICR
      0000008EH   SFRSYM    DATA     BYTE      AUXR
      000000AFH   SFRSYM    DATA     BYTE      IE2
      00000088H   SFRSYM    DATA     BYTE      TCON
      00000089H   SFRSYM    DATA     BYTE      TMOD
      00000098H   SFRSYM    DATA     BYTE      SCON
      000000F1H   SFRSYM    DATA     BYTE      CANICR
      00000087H   SFRSYM    DATA     BYTE      PCON
      000000BCH   SFRSYM    DATA     BYTE      ADC_CONTR
      000000E7H   SFRSYM    DATA     BYTE      CMPCR2
L251 LINKER/LOCATER V4.66.93.0                                                        04/24/2024  23:59:23  PAGE 107


      000000E6H   SFRSYM    DATA     BYTE      CMPCR1
      000000DEH   SFRSYM    DATA     BYTE      ADCCFG
      000000B8H   SFRSYM    DATA     BYTE      IP
      0000008FH   SFRSYM    DATA     BYTE      INTCLKO
      000000EEH   SFRSYM    DATA     BYTE      IP3H
      000000B6H   SFRSYM    DATA     BYTE      IP2H
      000000A8H   SFRSYM    DATA     BYTE      IE
      000000BBH   SFRSYM    DATA     BYTE      P_SW3
      000000BAH   SFRSYM    DATA     BYTE      P_SW2
      000000A2H   SFRSYM    DATA     BYTE      P_SW1
      000000CEH   SFRSYM    DATA     BYTE      SPCTL
      000000F8H   SFRSYM    DATA     BYTE      P7
      000000E8H   SFRSYM    DATA     BYTE      P6
      000000C8H   SFRSYM    DATA     BYTE      P5
      000000C0H   SFRSYM    DATA     BYTE      P4
      000000B0H   SFRSYM    DATA     BYTE      P3
      000000A0H   SFRSYM    DATA     BYTE      P2
      00000090H   SFRSYM    DATA     BYTE      P1
      00000080H   SFRSYM    DATA     BYTE      P0
      R7          REGSYM    ---      BYTE      num
      R7          REGSYM    ---      BYTE      i
      R7          REGSYM    ---      BYTE      i
      R10         REGSYM    ---      BYTE      dat

      ---         MODULE    ---      ---       UI
      00FF6771H   PUBLIC    CODE     ---       UI_switch
      00FF8E31H   PUBLIC    CODE     ---       IU_Thread
      000000D0H   SFRSYM    DATA     BYTE      PSW
      0000009DH   SFRSYM    DATA     BYTE      IRCBAND
      00000097H   SFRSYM    DATA     BYTE      AUXR2
      000000EFH   SFRSYM    DATA     BYTE      AUXINTIF
      000000FDH   SFRSYM    DATA     BYTE      S4CON
      000000ACH   SFRSYM    DATA     BYTE      S3CON
      0000009AH   SFRSYM    DATA     BYTE      S2CON
      000000B7H   SFRSYM    DATA     BYTE      IPH
      000000CDH   SFRSYM    DATA     BYTE      SPSTAT
      000000DDH   SFRSYM    DATA     BYTE      T4T3M
      000000C1H   SFRSYM    DATA     BYTE      WDT_CONTR
      000000DFH   SFRSYM    DATA     BYTE      IP3
      000000F4H   SFRSYM    DATA     BYTE      USBCON
      000000B5H   SFRSYM    DATA     BYTE      IP2
      000000FFH   SFRSYM    DATA     BYTE      RSTCFG
      000000C7H   SFRSYM    DATA     BYTE      IAP_CONTR
      000000F9H   SFRSYM    DATA     BYTE      LINICR
      0000008EH   SFRSYM    DATA     BYTE      AUXR
      000000AFH   SFRSYM    DATA     BYTE      IE2
      00000088H   SFRSYM    DATA     BYTE      TCON
      00000089H   SFRSYM    DATA     BYTE      TMOD
      00000098H   SFRSYM    DATA     BYTE      SCON
      000000F1H   SFRSYM    DATA     BYTE      CANICR
      00000087H   SFRSYM    DATA     BYTE      PCON
      000000BCH   SFRSYM    DATA     BYTE      ADC_CONTR
      000000E7H   SFRSYM    DATA     BYTE      CMPCR2
      000000E6H   SFRSYM    DATA     BYTE      CMPCR1
      000000DEH   SFRSYM    DATA     BYTE      ADCCFG
      000000B8H   SFRSYM    DATA     BYTE      IP
      0000008FH   SFRSYM    DATA     BYTE      INTCLKO
      000000EEH   SFRSYM    DATA     BYTE      IP3H
      000000B6H   SFRSYM    DATA     BYTE      IP2H
      000000A8H   SFRSYM    DATA     BYTE      IE
      000000BBH   SFRSYM    DATA     BYTE      P_SW3
      000000BAH   SFRSYM    DATA     BYTE      P_SW2
      000000A2H   SFRSYM    DATA     BYTE      P_SW1
      000000CEH   SFRSYM    DATA     BYTE      SPCTL
      000000F8H   SFRSYM    DATA     BYTE      P7
L251 LINKER/LOCATER V4.66.93.0                                                        04/24/2024  23:59:23  PAGE 108


      000000E8H   SFRSYM    DATA     BYTE      P6
      000000C8H   SFRSYM    DATA     BYTE      P5
      000000C0H   SFRSYM    DATA     BYTE      P4
      000000B0H   SFRSYM    DATA     BYTE      P3
      000000A0H   SFRSYM    DATA     BYTE      P2
      00000090H   SFRSYM    DATA     BYTE      P1
      00000080H   SFRSYM    DATA     BYTE      P0

      00FF6771H   BLOCK     CODE     ---       LVL=0
      00FF6771H   LINE      CODE     ---       #27
      00FF6773H   LINE      CODE     ---       #31
      00FF677CH   LINE      CODE     ---       #34
      00FF6790H   LINE      CODE     ---       #36
      00FF679FH   LINE      CODE     ---       #37
      00FF67A3H   LINE      CODE     ---       #38
      00FF67A6H   LINE      CODE     ---       #39
      00FF67ABH   LINE      CODE     ---       #40
      00FF67AEH   LINE      CODE     ---       #41
      00FF67CAH   LINE      CODE     ---       #43
      00FF67CEH   LINE      CODE     ---       #44
      00FF67D1H   LINE      CODE     ---       #45
      00FF67D6H   LINE      CODE     ---       #46
      00FF67D9H   LINE      CODE     ---       #47
      00FF67E5H   LINE      CODE     ---       #49
      00FF67E8H   LINE      CODE     ---       #50
      00FF6800H   LINE      CODE     ---       #51
      00FF6803H   LINE      CODE     ---       #53
      00FF6805H   LINE      CODE     ---       #54
      00FF680FH   LINE      CODE     ---       #56
      00FF6813H   LINE      CODE     ---       #57
      00FF6816H   LINE      CODE     ---       #58
      00FF6819H   LINE      CODE     ---       #60
      00FF681BH   LINE      CODE     ---       #61
      00FF6825H   LINE      CODE     ---       #63
      00FF6829H   LINE      CODE     ---       #64
      00FF682CH   LINE      CODE     ---       #65
      00FF682FH   LINE      CODE     ---       #67
      00FF6831H   LINE      CODE     ---       #68
      00FF683BH   LINE      CODE     ---       #70
      00FF683FH   LINE      CODE     ---       #71
      00FF6842H   LINE      CODE     ---       #72
      00FF6845H   LINE      CODE     ---       #74
      00FF6847H   LINE      CODE     ---       #75
      00FF6851H   LINE      CODE     ---       #77
      00FF6855H   LINE      CODE     ---       #78
      00FF6858H   LINE      CODE     ---       #80
      00FF6858H   LINE      CODE     ---       #82
      00FF685DH   LINE      CODE     ---       #83
      ---         BLOCKEND  ---      ---       LVL=0

      00FF8E31H   BLOCK     CODE     ---       LVL=0
      00FF8E31H   LINE      CODE     ---       #96
      00FF8E31H   LINE      CODE     ---       #98
      00FF8E3BH   LINE      CODE     ---       #101
      00FF8E3EH   LINE      CODE     ---       #102
      00FF8E41H   LINE      CODE     ---       #103
      00FF8E44H   LINE      CODE     ---       #104
      00FF8E47H   LINE      CODE     ---       #105
      00FF8E4AH   LINE      CODE     ---       #107
      00FF8E55H   LINE      CODE     ---       #108
      ---         BLOCKEND  ---      ---       LVL=0

      ---         MODULE    ---      ---       isr
      00FF01DDH   SYMBOL    CODE     ---       ADCBMM_ISR
      00FF01DDH   SYMBOL    CODE     ---       LCMBMM_ISR
L251 LINKER/LOCATER V4.66.93.0                                                        04/24/2024  23:59:23  PAGE 109


      00FF01DDH   SYMBOL    CODE     ---       LCMIF_ISR
      00FF01DDH   SYMBOL    CODE     ---       M2MBMM_ISR
      00FF01DDH   SYMBOL    CODE     ---       P0INT_ISR
      00FF01DDH   SYMBOL    CODE     ---       P1INT_ISR
      00FF01DDH   SYMBOL    CODE     ---       P2INT_ISR
      00FF01DDH   SYMBOL    CODE     ---       P3INT_ISR
      00FF01DDH   SYMBOL    CODE     ---       P4INT_ISR
      00FF01DDH   SYMBOL    CODE     ---       P5INT_ISR
      00FF01DDH   SYMBOL    CODE     ---       P6INT_ISR
      00FF01DDH   SYMBOL    CODE     ---       P7INT_ISR
      00FF01DDH   SYMBOL    CODE     ---       P8INT_ISR
      00FF01DDH   SYMBOL    CODE     ---       P9INT_ISR
      00FF01DDH   SYMBOL    CODE     ---       SPIBMM_ISR
      00FF01DDH   SYMBOL    CODE     ---       U1RXBMM_ISR
      00FF01DDH   SYMBOL    CODE     ---       U1TXBMM_ISR
      00FF01DDH   SYMBOL    CODE     ---       U2RXBMM_ISR
      00FF01DDH   SYMBOL    CODE     ---       U2TXBMM_ISR
      00FF01DDH   SYMBOL    CODE     ---       U3RXBMM_ISR
      00FF01DDH   SYMBOL    CODE     ---       U3TXBMM_ISR
      00FF01DDH   SYMBOL    CODE     ---       U4RXBMM_ISR
      00FF01DDH   SYMBOL    CODE     ---       U4TXBMM_ISR

      00FF012BH   BLOCK     CODE     NEAR LAB  LVL=0
      00FF012BH   LINE      CODE     ---       #3
      ---         BLOCKEND  ---      ---       LVL=0

      00FF0133H   BLOCK     CODE     NEAR LAB  LVL=0
      00FF0133H   LINE      CODE     ---       #5
      ---         BLOCKEND  ---      ---       LVL=0

      00FF013BH   BLOCK     CODE     NEAR LAB  LVL=0
      00FF013BH   LINE      CODE     ---       #7
      ---         BLOCKEND  ---      ---       LVL=0

      00FF0143H   BLOCK     CODE     NEAR LAB  LVL=0
      00FF0143H   LINE      CODE     ---       #9
      ---         BLOCKEND  ---      ---       LVL=0

      00FF014BH   BLOCK     CODE     NEAR LAB  LVL=0
      00FF014BH   LINE      CODE     ---       #11
      ---         BLOCKEND  ---      ---       LVL=0

      00FF0153H   BLOCK     CODE     NEAR LAB  LVL=0
      00FF0153H   LINE      CODE     ---       #13
      ---         BLOCKEND  ---      ---       LVL=0

      00FF015BH   BLOCK     CODE     NEAR LAB  LVL=0
      00FF015BH   LINE      CODE     ---       #15
      ---         BLOCKEND  ---      ---       LVL=0

      00FF0163H   BLOCK     CODE     NEAR LAB  LVL=0
      00FF0163H   LINE      CODE     ---       #17
      ---         BLOCKEND  ---      ---       LVL=0

      00FF016BH   BLOCK     CODE     NEAR LAB  LVL=0
      00FF016BH   LINE      CODE     ---       #19
      ---         BLOCKEND  ---      ---       LVL=0

      00FF0173H   BLOCK     CODE     NEAR LAB  LVL=0
      00FF0173H   LINE      CODE     ---       #21
      ---         BLOCKEND  ---      ---       LVL=0

      00FF017BH   BLOCK     CODE     NEAR LAB  LVL=0
      00FF017BH   LINE      CODE     ---       #23
      ---         BLOCKEND  ---      ---       LVL=0
L251 LINKER/LOCATER V4.66.93.0                                                        04/24/2024  23:59:23  PAGE 110



      00FF0183H   BLOCK     CODE     NEAR LAB  LVL=0
      00FF0183H   LINE      CODE     ---       #25
      ---         BLOCKEND  ---      ---       LVL=0

      00FF018BH   BLOCK     CODE     NEAR LAB  LVL=0
      00FF018BH   LINE      CODE     ---       #27
      ---         BLOCKEND  ---      ---       LVL=0

      00FF0193H   BLOCK     CODE     NEAR LAB  LVL=0
      00FF0193H   LINE      CODE     ---       #29
      ---         BLOCKEND  ---      ---       LVL=0

      00FF019BH   BLOCK     CODE     NEAR LAB  LVL=0
      00FF019BH   LINE      CODE     ---       #31
      ---         BLOCKEND  ---      ---       LVL=0

      00FF01A3H   BLOCK     CODE     NEAR LAB  LVL=0
      00FF01A3H   LINE      CODE     ---       #33
      ---         BLOCKEND  ---      ---       LVL=0

      00FF01ABH   BLOCK     CODE     NEAR LAB  LVL=0
      00FF01ABH   LINE      CODE     ---       #35
      ---         BLOCKEND  ---      ---       LVL=0

      00FF01B3H   BLOCK     CODE     NEAR LAB  LVL=0
      00FF01B3H   LINE      CODE     ---       #37
      ---         BLOCKEND  ---      ---       LVL=0

      00FF01BBH   BLOCK     CODE     NEAR LAB  LVL=0
      00FF01BBH   LINE      CODE     ---       #39
      ---         BLOCKEND  ---      ---       LVL=0

      00FF01C3H   BLOCK     CODE     NEAR LAB  LVL=0
      00FF01C3H   LINE      CODE     ---       #41
      ---         BLOCKEND  ---      ---       LVL=0

      00FF01CBH   BLOCK     CODE     NEAR LAB  LVL=0
      00FF01CBH   LINE      CODE     ---       #43
      ---         BLOCKEND  ---      ---       LVL=0

      00FF01D3H   BLOCK     CODE     NEAR LAB  LVL=0
      00FF01D3H   LINE      CODE     ---       #45
      ---         BLOCKEND  ---      ---       LVL=0

      00FF01DBH   BLOCK     CODE     NEAR LAB  LVL=0
      00FF01DBH   LINE      CODE     ---       #47
      00FF01DDH   LINE      CODE     ---       #73
      ---         BLOCKEND  ---      ---       LVL=0

      ---         MODULE    ---      ---       STC_MDU32
      00FF92D6H   PUBLIC    CODE     ---       ?C?LIMUL
      00FF012EH   PUBLIC    CODE     ---       ?C?LMUL
      00FF0136H   PUBLIC    CODE     ---       ?C?ULDIV
      00FF92DCH   PUBLIC    CODE     ---       ?C?ULIDIV
      000000EDH   SFRSYM    DATA     BYTE      DMAIR

      00FF012EH   BLOCK     CODE     NEAR LAB  LVL=0
      00FF012EH   LINE      CODE     ---       #16
      00FF0131H   LINE      CODE     ---       #17
      ---         BLOCKEND  ---      ---       LVL=0

      00FF92D6H   BLOCK     CODE     NEAR LAB  LVL=0
      00FF92D6H   LINE      CODE     ---       #26
      00FF92D8H   LINE      CODE     ---       #27
L251 LINKER/LOCATER V4.66.93.0                                                        04/24/2024  23:59:23  PAGE 111


      00FF92DBH   LINE      CODE     ---       #28
      ---         BLOCKEND  ---      ---       LVL=0

      00FF0136H   BLOCK     CODE     NEAR LAB  LVL=0
      00FF0136H   LINE      CODE     ---       #37
      00FF0139H   LINE      CODE     ---       #38
      ---         BLOCKEND  ---      ---       LVL=0

      00FF92DCH   BLOCK     CODE     NEAR LAB  LVL=0
      00FF92DCH   LINE      CODE     ---       #47
      00FF92DEH   LINE      CODE     ---       #48
      00FF92E1H   LINE      CODE     ---       #49
      ---         BLOCKEND  ---      ---       LVL=0

      ---         MODULE    ---      ---       SleepMode
      00FF5F66H   PUBLIC    CODE     ---       SleepMode_ON
      00FF6860H   PUBLIC    CODE     ---       SleepMode_OFF
      00000094H   SFRSYM    DATA     BYTE      P0M0
      000000D0H   SFRSYM    DATA     BYTE      PSW
      000000BAH.7 SFRSYM    DATA     BIT       EAXFR
      0000009DH   SFRSYM    DATA     BYTE      IRCBAND
      00000097H   SFRSYM    DATA     BYTE      AUXR2
      000000EFH   SFRSYM    DATA     BYTE      AUXINTIF
      000000FDH   SFRSYM    DATA     BYTE      S4CON
      000000ACH   SFRSYM    DATA     BYTE      S3CON
      0000009AH   SFRSYM    DATA     BYTE      S2CON
      000000B7H   SFRSYM    DATA     BYTE      IPH
      000000CDH   SFRSYM    DATA     BYTE      SPSTAT
      000000DDH   SFRSYM    DATA     BYTE      T4T3M
      000000C1H   SFRSYM    DATA     BYTE      WDT_CONTR
      000000DFH   SFRSYM    DATA     BYTE      IP3
      000000F4H   SFRSYM    DATA     BYTE      USBCON
      000000B5H   SFRSYM    DATA     BYTE      IP2
      000000FFH   SFRSYM    DATA     BYTE      RSTCFG
      000000C7H   SFRSYM    DATA     BYTE      IAP_CONTR
      000000F9H   SFRSYM    DATA     BYTE      LINICR
      0000008EH   SFRSYM    DATA     BYTE      AUXR
      000000AFH   SFRSYM    DATA     BYTE      IE2
      00000088H   SFRSYM    DATA     BYTE      TCON
      00000089H   SFRSYM    DATA     BYTE      TMOD
      00000098H   SFRSYM    DATA     BYTE      SCON
      000000FFH.4 SFRSYM    DATA     BIT       P54RST
      000000F1H   SFRSYM    DATA     BYTE      CANICR
      00000087H   SFRSYM    DATA     BYTE      PCON
      000000BCH   SFRSYM    DATA     BYTE      ADC_CONTR
      000000E7H   SFRSYM    DATA     BYTE      CMPCR2
      000000E6H   SFRSYM    DATA     BYTE      CMPCR1
      000000DEH   SFRSYM    DATA     BYTE      ADCCFG
      000000B8H   SFRSYM    DATA     BYTE      IP
      0000008FH   SFRSYM    DATA     BYTE      INTCLKO
      000000EEH   SFRSYM    DATA     BYTE      IP3H
      00000087H.1 SFRSYM    DATA     BIT       PD
      000000B6H   SFRSYM    DATA     BYTE      IP2H
      000000A8H   SFRSYM    DATA     BYTE      IE
      000000BBH   SFRSYM    DATA     BYTE      P_SW3
      000000BAH   SFRSYM    DATA     BYTE      P_SW2
      000000A2H   SFRSYM    DATA     BYTE      P_SW1
      000000CEH   SFRSYM    DATA     BYTE      SPCTL
      000000F8H   SFRSYM    DATA     BYTE      P7
      000000A8H.7 SFRSYM    DATA     BIT       EA
      000000E1H   SFRSYM    DATA     BYTE      P7M1
      000000E8H   SFRSYM    DATA     BYTE      P6
      000000C8H   SFRSYM    DATA     BYTE      P5
      000000CBH   SFRSYM    DATA     BYTE      P6M1
      000000E2H   SFRSYM    DATA     BYTE      P7M0
L251 LINKER/LOCATER V4.66.93.0                                                        04/24/2024  23:59:23  PAGE 112


      000000C0H   SFRSYM    DATA     BYTE      P4
      000000C9H   SFRSYM    DATA     BYTE      P5M1
      000000CCH   SFRSYM    DATA     BYTE      P6M0
      000000B0H   SFRSYM    DATA     BYTE      P3
      000000B3H   SFRSYM    DATA     BYTE      P4M1
      000000CAH   SFRSYM    DATA     BYTE      P5M0
      000000A0H   SFRSYM    DATA     BYTE      P2
      000000B1H   SFRSYM    DATA     BYTE      P3M1
      000000B4H   SFRSYM    DATA     BYTE      P4M0
      00000090H   SFRSYM    DATA     BYTE      P1
      00000095H   SFRSYM    DATA     BYTE      P2M1
      000000B2H   SFRSYM    DATA     BYTE      P3M0
      00000080H   SFRSYM    DATA     BYTE      P0
      00000091H   SFRSYM    DATA     BYTE      P1M1
      00000096H   SFRSYM    DATA     BYTE      P2M0
      00000092H   SFRSYM    DATA     BYTE      P1M0
      00000093H   SFRSYM    DATA     BYTE      P0M1

      00FF5F66H   BLOCK     CODE     ---       LVL=0
      00FF5F66H   LINE      CODE     ---       #22
      00FF5F66H   LINE      CODE     ---       #24
      00FF5F70H   LINE      CODE     ---       #25
      00FF5F7BH   LINE      CODE     ---       #34
      00FF5F7EH   LINE      CODE     ---       #35
      00FF5F81H   LINE      CODE     ---       #36
      00FF5F8EH   LINE      CODE     ---       #37
      00FF5F91H   LINE      CODE     ---       #40
      00FF5F99H   LINE      CODE     ---       #41
      00FF5FA0H   LINE      CODE     ---       #43
      00FF5FA3H   LINE      CODE     ---       #52
      00FF5FA6H   LINE      CODE     ---       #53
      00FF5FA9H   LINE      CODE     ---       #54
      00FF5FACH   LINE      CODE     ---       #58
      00FF5FAFH   LINE      CODE     ---       #59
      00FF5FB2H   LINE      CODE     ---       #60
      00FF5FB5H   LINE      CODE     ---       #65
      00FF5FB8H   LINE      CODE     ---       #66
      00FF5FBBH   LINE      CODE     ---       #67
      00FF5FBEH   LINE      CODE     ---       #71
      00FF5FC1H   LINE      CODE     ---       #72
      00FF5FC4H   LINE      CODE     ---       #73
      00FF5FC7H   LINE      CODE     ---       #77
      00FF5FCAH   LINE      CODE     ---       #78
      00FF5FCDH   LINE      CODE     ---       #79
      00FF5FD0H   LINE      CODE     ---       #84
      00FF5FD3H   LINE      CODE     ---       #85
      00FF5FD6H   LINE      CODE     ---       #86
      00FF5FD9H   LINE      CODE     ---       #90
      00FF5FDCH   LINE      CODE     ---       #91
      00FF5FDFH   LINE      CODE     ---       #92
      00FF5FE2H   LINE      CODE     ---       #93
      00FF5FE5H   LINE      CODE     ---       #94
      00FF5FE8H   LINE      CODE     ---       #95
      00FF5FEBH   LINE      CODE     ---       #102
      00FF5FFEH   LINE      CODE     ---       #103
      00FF600EH   LINE      CODE     ---       #104
      00FF601FH   LINE      CODE     ---       #105
      00FF602EH   LINE      CODE     ---       #107
      00FF6037H   LINE      CODE     ---       #108
      00FF603EH   LINE      CODE     ---       #110
      00FF604AH   LINE      CODE     ---       #111
      00FF6056H   LINE      CODE     ---       #112
      00FF6062H   LINE      CODE     ---       #113
      00FF606EH   LINE      CODE     ---       #114
      00FF6070H   LINE      CODE     ---       #119
L251 LINKER/LOCATER V4.66.93.0                                                        04/24/2024  23:59:23  PAGE 113


      00FF6071H   LINE      CODE     ---       #120
      00FF6072H   LINE      CODE     ---       #121
      00FF6073H   LINE      CODE     ---       #122
      00FF6074H   LINE      CODE     ---       #123
      00FF6077H   LINE      CODE     ---       #124
      00FF6078H   LINE      CODE     ---       #125
      00FF6079H   LINE      CODE     ---       #126
      00FF607AH   LINE      CODE     ---       #127
      00FF607BH   LINE      CODE     ---       #130
      ---         BLOCKEND  ---      ---       LVL=0

      00FF6860H   BLOCK     CODE     ---       LVL=0
      00FF6860H   LINE      CODE     ---       #132
      00FF6862H   LINE      CODE     ---       #134
      00FF6872H   LINE      CODE     ---       #135
      00FF687EH   LINE      CODE     ---       #136
      00FF6880H   LINE      CODE     ---       #137
      00FF6883H   LINE      CODE     ---       #138
      00FF6886H   LINE      CODE     ---       #139
      00FF6889H   LINE      CODE     ---       #140
      00FF688CH   LINE      CODE     ---       #141
      00FF688FH   LINE      CODE     ---       #142
      00FF6892H   LINE      CODE     ---       #143
      00FF6895H   LINE      CODE     ---       #144
      00FF6898H   LINE      CODE     ---       #145
      00FF689BH   LINE      CODE     ---       #146
      00FF689EH   LINE      CODE     ---       #147
      00FF68A2H   LINE      CODE     ---       #148
      00FF68A5H   LINE      CODE     ---       #149
      00FF68A8H   LINE      CODE     ---       #150
      00FF68ABH   LINE      CODE     ---       #151
      00FF68AEH   LINE      CODE     ---       #152
      00FF68B1H   LINE      CODE     ---       #153
      00FF68BCH   LINE      CODE     ---       #154
      00FF68BFH   LINE      CODE     ---       #155
      00FF68CAH   LINE      CODE     ---       #156
      00FF68CDH   LINE      CODE     ---       #157
      00FF68D0H   LINE      CODE     ---       #158
      00FF68D3H   LINE      CODE     ---       #159
      00FF68E0H   LINE      CODE     ---       #160
      00FF68E3H   LINE      CODE     ---       #161
      00FF68E8H   LINE      CODE     ---       #162
      00FF68EBH   LINE      CODE     ---       #163
      00FF68EEH   LINE      CODE     ---       #164
      00FF68FAH   LINE      CODE     ---       #165
      00FF6904H   LINE      CODE     ---       #166
      00FF690AH   LINE      CODE     ---       #167
      00FF6916H   LINE      CODE     ---       #168
      00FF6926H   LINE      CODE     ---       #169
      00FF6932H   LINE      CODE     ---       #170
      00FF693EH   LINE      CODE     ---       #171
      00FF694AH   LINE      CODE     ---       #172
      00FF694CH   LINE      CODE     ---       #175
      ---         BLOCKEND  ---      ---       LVL=0

      ---         MODULE    ---      ---       ?C_START
      00FF0000H   PUBLIC    CODE     ---       ?C?STARTUP
      00FF0000H   PUBLIC    CODE     ---       ?C_STARTUP

      ---         MODULE    ---      ---       ?C?INITEDATA
      00FF8069H   PUBLIC    CODE     ---       ?C?INITEDATA

      ---         MODULE    ---      ---       ?C?INITHDATA
      00FF8092H   PUBLIC    CODE     ---       ?C?INITHDATA

L251 LINKER/LOCATER V4.66.93.0                                                        04/24/2024  23:59:23  PAGE 114


      ---         MODULE    ---      ---       ?C?SIDIV
      00FF8C27H   PUBLIC    CODE     ---       ?C?SIDIV

      ---         MODULE    ---      ---       ?C?INITEDATA_END
      00FF9F2AH   PUBLIC    HCONST   WORD      ?C?INITEDATA_END

      ---         MODULE    ---      ---       ?C?INITHDATA_END
      00FF9AFAH   PUBLIC    HCONST   WORD      ?C?INITHDATA_END

Program Size: data=8.2 edata+hdata=1208 xdata=2953 const=3146 code=37501
L251 RUN COMPLETE.  0 WARNING(S),  0 ERROR(S)
